(dp1
S'files'
p2
(dp3
S'env_lib_python2_7_site-packages_werkzeug_routing'
p4
(dp5
S'index'
p6
(dp7
S'html_filename'
p8
S'env_lib_python2_7_site-packages_werkzeug_routing.html'
p9
sS'name'
p10
S'env/lib/python2.7/site-packages/werkzeug/routing'
p11
sS'nums'
p12
ccopy_reg
_reconstructor
p13
(ccoverage.results
Numbers
p14
c__builtin__
object
p15
NtRp16
(dp17
S'n_files'
p18
I1
sS'n_branches'
p19
I0
sS'n_statements'
p20
I593
sS'n_excluded'
p21
I0
sS'n_partial_branches'
p22
I0
sS'n_missing'
p23
I236
sS'n_missing_branches'
p24
I0
sbssS'hash'
p25
S' \xf7\x80\xa6\x8a\x9f`\x89K\x97`j\x83\xe6\x0e\xc6'
p26
ssS'env_lib_python2_7_site-packages_sqlalchemy_connectors_mysqldb'
p27
(dp28
g6
(dp29
S'html_filename'
p30
S'env_lib_python2_7_site-packages_sqlalchemy_connectors_mysqldb.html'
p31
sS'name'
p32
S'env/lib/python2.7/site-packages/sqlalchemy/connectors/mysqldb'
p33
sS'nums'
p34
g13
(g14
g15
NtRp35
(dp36
g18
I1
sg19
I0
sg20
I80
sg21
I0
sg22
I0
sg23
I17
sg24
I0
sbssg25
S'\xc0->\xf9\x0b\xa7O\x13fO \xe1\xd8\xf6\x0e\xa5'
p37
ssS'env_lib_python2_7_site-packages_werkzeug_exceptions'
p38
(dp39
g6
(dp40
g8
S'env_lib_python2_7_site-packages_werkzeug_exceptions.html'
p41
sg10
S'env/lib/python2.7/site-packages/werkzeug/exceptions'
p42
sg12
g13
(g14
g15
NtRp43
(dp44
g18
I1
sg19
I0
sg20
I172
sg21
I0
sg22
I0
sg23
I27
sg24
I0
sbssg25
S'*\x1e=Cbg\xb6\x940a\xb0KA()#'
p45
ssS'env_lib_python2_7_site-packages_sqlalchemy_processors'
p46
(dp47
g6
(dp48
g30
S'env_lib_python2_7_site-packages_sqlalchemy_processors.html'
p49
sg32
S'env/lib/python2.7/site-packages/sqlalchemy/processors'
p50
sg34
g13
(g14
g15
NtRp51
(dp52
g18
I1
sg19
I0
sg20
I83
sg21
I0
sg22
I0
sg23
I68
sg24
I0
sbssg25
S'\x0b\xf80)\xae\xe9E\xe0\x8b\xd9M\x9d?O\x14\xf4'
p53
ssS'env_lib_python2_7_site-packages_sqlalchemy_orm_properties'
p54
(dp55
g6
(dp56
g8
S'env_lib_python2_7_site-packages_sqlalchemy_orm_properties.html'
p57
sg10
S'env/lib/python2.7/site-packages/sqlalchemy/orm/properties'
p58
sg12
g13
(g14
g15
NtRp59
(dp60
g18
I1
sg19
I0
sg20
I81
sg21
I0
sg22
I0
sg23
I30
sg24
I0
sbssg25
S'\xf5T\xcdn\xb6\xc2\xcb\xdaH\x03~\x10\tW\xf60'
p61
ssS'env_lib_python2_7_site-packages_sqlalchemy_engine_result'
p62
(dp63
g6
(dp64
g8
S'env_lib_python2_7_site-packages_sqlalchemy_engine_result.html'
p65
sg10
S'env/lib/python2.7/site-packages/sqlalchemy/engine/result'
p66
sg12
g13
(g14
g15
NtRp67
(dp68
g18
I1
sg19
I0
sg20
I446
sg21
I0
sg22
I0
sg23
I278
sg24
I0
sbssg25
S"\xad\x12=\xd8\x8b\xbbq\x0b'\x07\xea\x93$\x93\xd92"
p69
ssS'env_lib_python2_7_site-packages_sqlalchemy_ext___init__'
p70
(dp71
g6
(dp72
g30
S'env_lib_python2_7_site-packages_sqlalchemy_ext___init__.html'
p73
sg32
S'env/lib/python2.7/site-packages/sqlalchemy/ext/__init__'
p74
sg34
g13
(g14
g15
NtRp75
(dp76
g18
I1
sg19
I0
sg20
I0
sg21
I0
sg22
I0
sg23
I0
sg24
I0
sbssg25
S'/K\x95\xec{\xbd\xc7\x87\xa7\xcdm\x01M6\xcf\x84'
p77
ssS'app_views'
p78
(dp79
g6
(dp80
g8
S'app_views.html'
p81
sg10
S'app/views'
p82
sg12
g13
(g14
g15
NtRp83
(dp84
g18
I1
sg19
I0
sg20
I97
sg21
I0
sg22
I0
sg23
I47
sg24
I0
sbssg25
S'\xfe@\xd0/oMd\x18\x19\x02\x012*\x9d/,'
p85
ssS'env_lib_python2_7_site-packages_MySQLdb_constants_CLIENT'
p86
(dp87
g6
(dp88
g30
S'env_lib_python2_7_site-packages_MySQLdb_constants_CLIENT.html'
p89
sg32
S'env/lib/python2.7/site-packages/MySQLdb/constants/CLIENT'
p90
sg34
g13
(g14
g15
NtRp91
(dp92
g18
I1
sg19
I0
sg20
I18
sg21
I0
sg22
I0
sg23
I0
sg24
I0
sbssg25
S'\xe6\xcc\xce$\xe06i\xc1_\xc4\x90\x1c\xaf\x9f\xe4X'
p93
ssS'env_lib_python2_7_site-packages_sqlalchemy_orm_session'
p94
(dp95
g6
(dp96
g8
S'env_lib_python2_7_site-packages_sqlalchemy_orm_session.html'
p97
sg10
S'env/lib/python2.7/site-packages/sqlalchemy/orm/session'
p98
sg12
g13
(g14
g15
NtRp99
(dp100
g18
I1
sg19
I0
sg20
I782
sg21
I0
sg22
I0
sg23
I424
sg24
I0
sbssg25
S'#\xf0\xb2\x0c\x80Viq\x1egJ,"\xc1\x93\x82'
p101
ssS'env_lib_python2_7_site-packages_sqlalchemy_schema'
p102
(dp103
g6
(dp104
g30
S'env_lib_python2_7_site-packages_sqlalchemy_schema.html'
p105
sg32
S'env/lib/python2.7/site-packages/sqlalchemy/schema'
p106
sg34
g13
(g14
g15
NtRp107
(dp108
g18
I1
sg19
I0
sg20
I5
sg21
I0
sg22
I0
sg23
I0
sg24
I0
sbssg25
S'AY\x95\xf3\xd3\x9e\x87\xc6\x9c\x97\xa0\xe4Ry\xa2<'
p109
ssS'env_lib_python2_7_site-packages_flask_json'
p110
(dp111
g6
(dp112
g30
S'env_lib_python2_7_site-packages_flask_json.html'
p113
sg32
S'env/lib/python2.7/site-packages/flask/json'
p114
sg34
g13
(g14
g15
NtRp115
(dp116
g18
I1
sg19
I0
sg20
I83
sg21
I0
sg22
I0
sg23
I39
sg24
I0
sbssg25
S'\x03\xdd{q\xb1Zz\xb5\xe9YE-u\xc6\x9d\xbb'
p117
ssS'env_lib_python2_7_site-packages_flask_app'
p118
(dp119
g6
(dp120
g8
S'env_lib_python2_7_site-packages_flask_app.html'
p121
sg10
S'env/lib/python2.7/site-packages/flask/app'
p122
sg12
g13
(g14
g15
NtRp123
(dp124
g18
I1
sg19
I0
sg20
I528
sg21
I0
sg22
I0
sg23
I224
sg24
I0
sbssg25
S'\xb1\xad7\xa9N\x80s\x8d!?\xff,\x83\r\xb8A'
p125
ssS'env_lib_python2_7_site-packages_jinja2_runtime'
p126
(dp127
g6
(dp128
g30
S'env_lib_python2_7_site-packages_jinja2_runtime.html'
p129
sg32
S'env/lib/python2.7/site-packages/jinja2/runtime'
p130
sg34
g13
(g14
g15
NtRp131
(dp132
g18
I1
sg19
I0
sg20
I291
sg21
I0
sg22
I0
sg23
I159
sg24
I0
sbssg25
S',\x18\xb0\xeb\xc5\x1a\x98\x1ab7\xb2\x8a\xe3\x9f%\xbb'
p133
ssS'env_lib_python2_7_site-packages_flask_debughelpers'
p134
(dp135
g6
(dp136
g30
S'env_lib_python2_7_site-packages_flask_debughelpers.html'
p137
sg32
S'env/lib/python2.7/site-packages/flask/debughelpers'
p138
sg34
g13
(g14
g15
NtRp139
(dp140
g18
I1
sg19
I0
sg20
I35
sg21
I0
sg22
I0
sg23
I25
sg24
I0
sbssg25
S'\xb1\x83\xab\xaa\xfbi\x87\xe1\x0515\x06\xb8\xe5\xcd\xa5'
p141
ssS'env_lib_python2_7_site-packages_wtforms_compat'
p142
(dp143
g6
(dp144
g30
S'env_lib_python2_7_site-packages_wtforms_compat.html'
p145
sg32
S'env/lib/python2.7/site-packages/wtforms/compat'
p146
sg34
g13
(g14
g15
NtRp147
(dp148
g18
I1
sg19
I0
sg20
I14
sg21
I0
sg22
I0
sg23
I5
sg24
I0
sbssg25
S']\xa2\x85\xc0\r\xc0\xb6\x8f\x92g\xeb\xff\xcc\\\xedm'
p149
ssS'env_lib_python2_7_site-packages_sqlalchemy_orm_exc'
p150
(dp151
g6
(dp152
g30
S'env_lib_python2_7_site-packages_sqlalchemy_orm_exc.html'
p153
sg32
S'env/lib/python2.7/site-packages/sqlalchemy/orm/exc'
p154
sg34
g13
(g14
g15
NtRp155
(dp156
g18
I1
sg19
I0
sg20
I60
sg21
I0
sg22
I0
sg23
I35
sg24
I0
sbssg25
S'\xe4\xa0\x80\x1dx\xc3k>\x83\xa1h\x19<\x12\xbd\x83'
p157
ssS'env_lib_python2_7_site-packages_sqlalchemy_sql_annotation'
p158
(dp159
g6
(dp160
g8
S'env_lib_python2_7_site-packages_sqlalchemy_sql_annotation.html'
p161
sg10
S'env/lib/python2.7/site-packages/sqlalchemy/sql/annotation'
p162
sg12
g13
(g14
g15
NtRp163
(dp164
g18
I1
sg19
I0
sg20
I97
sg21
I0
sg22
I0
sg23
I25
sg24
I0
sbssg25
S'i\xe1\xd1+\xe1\xac(-\x85\xa3\x1d\x0c7\x90\x9c\xeb'
p165
ssS'env_lib_python2_7_site-packages_sqlalchemy_engine___init__'
p166
(dp167
g6
(dp168
g30
S'env_lib_python2_7_site-packages_sqlalchemy_engine___init__.html'
p169
sg32
S'env/lib/python2.7/site-packages/sqlalchemy/engine/__init__'
p170
sg34
g13
(g14
g15
NtRp171
(dp172
g18
I1
sg19
I0
sg20
I19
sg21
I0
sg22
I0
sg23
I5
sg24
I0
sbssg25
S'1\xd75\xe3!\x1cF\xf5\x86\x12\xdc:\xd1\xe2\x8d\xbc'
p173
ssS'env_lib_python2_7_site-packages_sqlalchemy_dialects_mysql___init__'
p174
(dp175
g6
(dp176
g30
S'env_lib_python2_7_site-packages_sqlalchemy_dialects_mysql___init__.html'
p177
sg32
S'env/lib/python2.7/site-packages/sqlalchemy/dialects/mysql/__init__'
p178
sg34
g13
(g14
g15
NtRp179
(dp180
g18
I1
sg19
I0
sg20
I4
sg21
I0
sg22
I0
sg23
I0
sg24
I0
sbssg25
S'\x01\x85s\x01\x8dh\x9b\xaeK\xb2\n\xb0\xcb\x1d\xe42'
p181
ssS'env_lib_python2_7_site-packages_jinja2_bccache'
p182
(dp183
g6
(dp184
g30
S'env_lib_python2_7_site-packages_jinja2_bccache.html'
p185
sg32
S'env/lib/python2.7/site-packages/jinja2/bccache'
p186
sg34
g13
(g14
g15
NtRp187
(dp188
g18
I1
sg19
I0
sg20
I147
sg21
I0
sg22
I0
sg23
I104
sg24
I0
sbssg25
S'r\xee\xabK\x8f\x01\xb0\xfa\xa2rl\xe3)n]\xc4'
p189
ssS'env_lib_python2_7_site-packages_sqlalchemy_orm_sync'
p190
(dp191
g6
(dp192
g30
S'env_lib_python2_7_site-packages_sqlalchemy_orm_sync.html'
p193
sg32
S'env/lib/python2.7/site-packages/sqlalchemy/orm/sync'
p194
sg34
g13
(g14
g15
NtRp195
(dp196
g18
I1
sg19
I0
sg20
I56
sg21
I0
sg22
I0
sg23
I42
sg24
I0
sbssg25
S'\x07\xaf\x81\x90@L\xc7|Tf\x1d}\xdao\x85\xd7'
p197
ssS'env_lib_python2_7_site-packages_sqlalchemy_engine_base'
p198
(dp199
g6
(dp200
g8
S'env_lib_python2_7_site-packages_sqlalchemy_engine_base.html'
p201
sg10
S'env/lib/python2.7/site-packages/sqlalchemy/engine/base'
p202
sg12
g13
(g14
g15
NtRp203
(dp204
g18
I1
sg19
I0
sg20
I658
sg21
I0
sg22
I0
sg23
I360
sg24
I0
sbssg25
S'\xe5\x02\xb6\x81\x9c=\t\xbe\xefH\xa2.\x84\x87g\xa8'
p205
ssS'env_lib_python2_7_site-packages_MySQLdb_converters'
p206
(dp207
g6
(dp208
g8
S'env_lib_python2_7_site-packages_MySQLdb_converters.html'
p209
sg10
S'env/lib/python2.7/site-packages/MySQLdb/converters'
p210
sg12
g13
(g14
g15
NtRp211
(dp212
g18
I1
sg19
I0
sg20
I58
sg21
I0
sg22
I0
sg23
I29
sg24
I0
sbssg25
S'}\x0c\xd3\xb5w\x97\xae\x9a\xa6\xf7\x8f<\x08\xd0\x08\xe2'
p213
ssS'env_lib_python2_7_site-packages_sqlalchemy_connectors___init__'
p214
(dp215
g6
(dp216
g30
S'env_lib_python2_7_site-packages_sqlalchemy_connectors___init__.html'
p217
sg32
S'env/lib/python2.7/site-packages/sqlalchemy/connectors/__init__'
p218
sg34
g13
(g14
g15
NtRp219
(dp220
g18
I1
sg19
I0
sg20
I2
sg21
I0
sg22
I0
sg23
I0
sg24
I0
sbssg25
S'>\x11\x1bo\x143"\xacA\x92\x1bz\xba\xa9\xc9\xed'
p221
ssS'env_lib_python2_7_site-packages_sqlalchemy_sql_sqltypes'
p222
(dp223
g6
(dp224
g8
S'env_lib_python2_7_site-packages_sqlalchemy_sql_sqltypes.html'
p225
sg10
S'env/lib/python2.7/site-packages/sqlalchemy/sql/sqltypes'
p226
sg12
g13
(g14
g15
NtRp227
(dp228
g18
I1
sg19
I0
sg20
I526
sg21
I0
sg22
I0
sg23
I278
sg24
I0
sbssg25
S'\x1d\xf3iC\xde)@\x83q\xa3\xb2\xecoh\xc1\n'
p229
ssS'env_lib_python2_7_site-packages_wtforms_fields___init__'
p230
(dp231
g6
(dp232
g30
S'env_lib_python2_7_site-packages_wtforms_fields___init__.html'
p233
sg32
S'env/lib/python2.7/site-packages/wtforms/fields/__init__'
p234
sg34
g13
(g14
g15
NtRp235
(dp236
g18
I1
sg19
I0
sg20
I3
sg21
I0
sg22
I0
sg23
I0
sg24
I0
sbssg25
S'\x12dE2A}Z\x0f\x89cm\xa4\xb6M\x15:'
p237
ssS'env_lib_python2_7_site-packages_sqlalchemy_event_api'
p238
(dp239
g6
(dp240
g30
S'env_lib_python2_7_site-packages_sqlalchemy_event_api.html'
p241
sg32
S'env/lib/python2.7/site-packages/sqlalchemy/event/api'
p242
sg34
g13
(g14
g15
NtRp243
(dp244
g18
I1
sg19
I0
sg20
I24
sg21
I0
sg22
I0
sg23
I3
sg24
I0
sbssg25
S'H\xf4\xe5\xb5$\xcaY0\x8cA\xa9\xbf4\x84\xfa\xe0'
p245
ssS'env_lib_python2_7_site-packages_sqlalchemy_orm_attributes'
p246
(dp247
g6
(dp248
g8
S'env_lib_python2_7_site-packages_sqlalchemy_orm_attributes.html'
p249
sg10
S'env/lib/python2.7/site-packages/sqlalchemy/orm/attributes'
p250
sg12
g13
(g14
g15
NtRp251
(dp252
g18
I1
sg19
I0
sg20
I622
sg21
I0
sg22
I0
sg23
I365
sg24
I0
sbssg25
S'\x95\xf7|\xa9z\x8d\xcc4o\xc7\xee\xcfxu\x90\xd6'
p253
ssS'env_lib_python2_7_site-packages_werkzeug_test'
p254
(dp255
g6
(dp256
g30
S'env_lib_python2_7_site-packages_werkzeug_test.html'
p257
sg32
S'env/lib/python2.7/site-packages/werkzeug/test'
p258
sg34
g13
(g14
g15
NtRp259
(dp260
g18
I1
sg19
I0
sg20
I465
sg21
I0
sg22
I0
sg23
I180
sg24
I0
sbssg25
S'g\xde=\x07\xed"Z\xc2\x94\xc6\r\xe5\x80\xe2n\xef'
p261
ssS'env_lib_python2_7_site-packages_werkzeug_urls'
p262
(dp263
g6
(dp264
g8
S'env_lib_python2_7_site-packages_werkzeug_urls.html'
p265
sg10
S'env/lib/python2.7/site-packages/werkzeug/urls'
p266
sg12
g13
(g14
g15
NtRp267
(dp268
g18
I1
sg19
I0
sg20
I412
sg21
I0
sg22
I0
sg23
I154
sg24
I0
sbssg25
S'w3\x18\x9eb\xae\xd0\xcb*\x85\xb3U^da\x19'
p269
ssS'env_lib_python2_7_site-packages_sqlalchemy_orm_loading'
p270
(dp271
g6
(dp272
g8
S'env_lib_python2_7_site-packages_sqlalchemy_orm_loading.html'
p273
sg10
S'env/lib/python2.7/site-packages/sqlalchemy/orm/loading'
p274
sg12
g13
(g14
g15
NtRp275
(dp276
g18
I1
sg19
I0
sg20
I312
sg21
I0
sg22
I0
sg23
I167
sg24
I0
sbssg25
S"39\xe2'\x16\xec\xac\x94\x07}\xe5\xf1L\x89\xa3z"
p277
ssS'env_lib_python2_7_site-packages_sqlalchemy_event___init__'
p278
(dp279
g6
(dp280
g30
S'env_lib_python2_7_site-packages_sqlalchemy_event___init__.html'
p281
sg32
S'env/lib/python2.7/site-packages/sqlalchemy/event/__init__'
p282
sg34
g13
(g14
g15
NtRp283
(dp284
g18
I1
sg19
I0
sg20
I4
sg21
I0
sg22
I0
sg23
I0
sg24
I0
sbssg25
S'td]\xc4W\xe5\xd0\xd4\xdbx\xef\x16\x89W\xe2B'
p285
ssS'env_lib_python2_7_site-packages_jinja2_utils'
p286
(dp287
g6
(dp288
g30
S'env_lib_python2_7_site-packages_jinja2_utils.html'
p289
sg32
S'env/lib/python2.7/site-packages/jinja2/utils'
p290
sg34
g13
(g14
g15
NtRp291
(dp292
g18
I1
sg19
I0
sg20
I263
sg21
I0
sg22
I0
sg23
I154
sg24
I0
sbssg25
S"\xcd$\x12\x91s\xe7\xbf\xb8'_w\x87;\xedQ2"
p293
ssS'env_lib_python2_7_site-packages_sqlalchemy_orm_events'
p294
(dp295
g6
(dp296
g8
S'env_lib_python2_7_site-packages_sqlalchemy_orm_events.html'
p297
sg10
S'env/lib/python2.7/site-packages/sqlalchemy/orm/events'
p298
sg12
g13
(g14
g15
NtRp299
(dp300
g18
I1
sg19
I0
sg20
I257
sg21
I0
sg22
I0
sg23
I100
sg24
I0
sbssg25
S'>\xfb\x85\x8c\x08\x07{\xbb\xea\xc3A\x95\x7f4~\xe6'
p301
ssS'env_lib_python2_7_site-packages_flask_wtf__compat'
p302
(dp303
g6
(dp304
g30
S'env_lib_python2_7_site-packages_flask_wtf__compat.html'
p305
sg32
S'env/lib/python2.7/site-packages/flask_wtf/_compat'
p306
sg34
g13
(g14
g15
NtRp307
(dp308
g18
I1
sg19
I0
sg20
I10
sg21
I0
sg22
I0
sg23
I5
sg24
I0
sbssg25
S'I\xa3\xb5\x0b\x98\xe4?~/^\xdeK\x8eH\xd1S'
p309
ssS'env_lib_python2_7_site-packages_sqlalchemy_util__collections'
p310
(dp311
g6
(dp312
g8
S'env_lib_python2_7_site-packages_sqlalchemy_util__collections.html'
p313
sg10
S'env/lib/python2.7/site-packages/sqlalchemy/util/_collections'
p314
sg12
g13
(g14
g15
NtRp315
(dp316
g18
I1
sg19
I0
sg20
I550
sg21
I0
sg22
I0
sg23
I265
sg24
I0
sbssg25
S'\xf5\x15\xea\xa98\x9daD\xd0\xee%\x96\x16\xd2t\xd6'
p317
ssS'env_lib_python2_7_site-packages_sqlalchemy_orm_dynamic'
p318
(dp319
g6
(dp320
g30
S'env_lib_python2_7_site-packages_sqlalchemy_orm_dynamic.html'
p321
sg32
S'env/lib/python2.7/site-packages/sqlalchemy/orm/dynamic'
p322
sg34
g13
(g14
g15
NtRp323
(dp324
g18
I1
sg19
I0
sg20
I198
sg21
I0
sg22
I0
sg23
I144
sg24
I0
sbssg25
S'\xbeW {\xf6?6\xf6\xbd\x14(\x1a\x88>\xee\xf1'
p325
ssS'env_lib_python2_7_site-packages_sqlalchemy_sql_elements'
p326
(dp327
g6
(dp328
g8
S'env_lib_python2_7_site-packages_sqlalchemy_sql_elements.html'
p329
sg10
S'env/lib/python2.7/site-packages/sqlalchemy/sql/elements'
p330
sg12
g13
(g14
g15
NtRp331
(dp332
g18
I1
sg19
I0
sg20
I976
sg21
I0
sg22
I0
sg23
I419
sg24
I0
sbssg25
S'\x90\x8ce\x04\x9a\x9a@\xe1~y\xe5/\x98\x9dg\x8b'
p333
ssS'env_lib_python2_7_site-packages_flask___init__'
p334
(dp335
g6
(dp336
g30
S'env_lib_python2_7_site-packages_flask___init__.html'
p337
sg32
S'env/lib/python2.7/site-packages/flask/__init__'
p338
sg34
g13
(g14
g15
NtRp339
(dp340
g18
I1
sg19
I0
sg20
I18
sg21
I0
sg22
I0
sg23
I0
sg24
I0
sbssg25
S'\xbap\xbb\x0bT{\x1b\xee\xb3R\xfde\x14\xac>O'
p341
ssS'env_lib_python2_7_site-packages_jinja2_environment'
p342
(dp343
g6
(dp344
g8
S'env_lib_python2_7_site-packages_jinja2_environment.html'
p345
sg10
S'env/lib/python2.7/site-packages/jinja2/environment'
p346
sg12
g13
(g14
g15
NtRp347
(dp348
g18
I1
sg19
I0
sg20
I488
sg21
I0
sg22
I0
sg23
I282
sg24
I0
sbssg25
S'\xc4}"\xddPs\x92\xe1b{\x10\x00\xdf\xd6\x16\x96'
p349
ssS'env_lib_python2_7_site-packages_sqlalchemy_engine_interfaces'
p350
(dp351
g6
(dp352
g30
S'env_lib_python2_7_site-packages_sqlalchemy_engine_interfaces.html'
p353
sg32
S'env/lib/python2.7/site-packages/sqlalchemy/engine/interfaces'
p354
sg34
g13
(g14
g15
NtRp355
(dp356
g18
I1
sg19
I0
sg20
I131
sg21
I0
sg22
I0
sg23
I55
sg24
I0
sbssg25
S'\xefE\xf8\x06\x0e\xfa\xc1\xb8\x05B\xd3I\x16d\xc56'
p357
ssS'env_lib_python2_7_site-packages_flask_testing'
p358
(dp359
g6
(dp360
g30
S'env_lib_python2_7_site-packages_flask_testing.html'
p361
sg32
S'env/lib/python2.7/site-packages/flask/testing'
p362
sg34
g13
(g14
g15
NtRp363
(dp364
g18
I1
sg19
I0
sg20
I58
sg21
I0
sg22
I0
sg23
I31
sg24
I0
sbssg25
S'\xd9\xf3_\xa9\x18t\xef\xa2\xc5q@\xd3\xfe@\xd4c'
p365
ssS'env_lib_python2_7_site-packages_sqlalchemy_orm_strategy_options'
p366
(dp367
g6
(dp368
g30
S'env_lib_python2_7_site-packages_sqlalchemy_orm_strategy_options.html'
p369
sg32
S'env/lib/python2.7/site-packages/sqlalchemy/orm/strategy_options'
p370
sg34
g13
(g14
g15
NtRp371
(dp372
g18
I1
sg19
I0
sg20
I328
sg21
I0
sg22
I0
sg23
I243
sg24
I0
sbssg25
S'\x1c\xfc\xfa\x16O\xf9\xa8\x1a!\xc6\xcc\xfc\xcc\xc9\x8b\xbd'
p373
ssS'env_lib_python2_7_site-packages_sqlalchemy_dialects___init__'
p374
(dp375
g6
(dp376
g30
S'env_lib_python2_7_site-packages_sqlalchemy_dialects___init__.html'
p377
sg32
S'env/lib/python2.7/site-packages/sqlalchemy/dialects/__init__'
p378
sg34
g13
(g14
g15
NtRp379
(dp380
g18
I1
sg19
I0
sg20
I17
sg21
I0
sg22
I0
sg23
I4
sg24
I0
sbssg25
S'S\xc1{\x0e\x99\xe77\x97@\x91d\x1c\tT5\xa5'
p381
ssS'env_lib_python2_7_site-packages_sqlalchemy_util___init__'
p382
(dp383
g6
(dp384
g30
S'env_lib_python2_7_site-packages_sqlalchemy_util___init__.html'
p385
sg32
S'env/lib/python2.7/site-packages/sqlalchemy/util/__init__'
p386
sg34
g13
(g14
g15
NtRp387
(dp388
g18
I1
sg19
I0
sg20
I8
sg21
I0
sg22
I0
sg23
I0
sg24
I0
sbssg25
S'\x80\xfa[c\x83e\xc4PG\x9a-\x03\xf5&\x82\x07'
p389
ssS'env_lib_python2_7_site-packages_sqlalchemy_orm___init__'
p390
(dp391
g6
(dp392
g30
S'env_lib_python2_7_site-packages_sqlalchemy_orm___init__.html'
p393
sg32
S'env/lib/python2.7/site-packages/sqlalchemy/orm/__init__'
p394
sg34
g13
(g14
g15
NtRp395
(dp396
g18
I1
sg19
I0
sg20
I78
sg21
I0
sg22
I0
sg23
I21
sg24
I0
sbssg25
S'i\xdbY$#\x92E!\x02\xa9a\x98\xa0\x812\xf0'
p397
ssS'env_lib_python2_7_site-packages_sqlalchemy_sql_naming'
p398
(dp399
g6
(dp400
g30
S'env_lib_python2_7_site-packages_sqlalchemy_sql_naming.html'
p401
sg32
S'env/lib/python2.7/site-packages/sqlalchemy/sql/naming'
p402
sg34
g13
(g14
g15
NtRp403
(dp404
g18
I1
sg19
I0
sg20
I84
sg21
I0
sg22
I0
sg23
I49
sg24
I0
sbssg25
S'XD\xe5\xd9m\\\xffk\xd78|/E5\xbf\x11'
p405
ssS'env_lib_python2_7_site-packages_markupsafe__compat'
p406
(dp407
g6
(dp408
g30
S'env_lib_python2_7_site-packages_markupsafe__compat.html'
p409
sg32
S'env/lib/python2.7/site-packages/markupsafe/_compat'
p410
sg34
g13
(g14
g15
NtRp411
(dp412
g18
I1
sg19
I0
sg20
I14
sg21
I0
sg22
I0
sg23
I5
sg24
I0
sbssg25
S'\x99\x16\xdbp\x85/\x12e\xfa.\xcb\xca\xb3T\x01\xdd'
p413
ssS'env_lib_python2_7_site-packages_werkzeug_wrappers'
p414
(dp415
g6
(dp416
g8
S'env_lib_python2_7_site-packages_werkzeug_wrappers.html'
p417
sg10
S'env/lib/python2.7/site-packages/werkzeug/wrappers'
p418
sg12
g13
(g14
g15
NtRp419
(dp420
g18
I1
sg19
I0
sg20
I568
sg21
I0
sg22
I0
sg23
I242
sg24
I0
sbssg25
S'\x87\xc9\xef\xac`\xc1\xdal\xd7\x16\xb8\x9fV\x04\x1a\x12'
p421
ssS'env_lib_python2_7_site-packages_sqlalchemy_event_registry'
p422
(dp423
g6
(dp424
g30
S'env_lib_python2_7_site-packages_sqlalchemy_event_registry.html'
p425
sg32
S'env/lib/python2.7/site-packages/sqlalchemy/event/registry'
p426
sg34
g13
(g14
g15
NtRp427
(dp428
g18
I1
sg19
I0
sg20
I130
sg21
I0
sg22
I0
sg23
I66
sg24
I0
sbssg25
S'uv8\x05\xa6@!\x12\x94\x8eSK\xbdu2\x9e'
p429
ssS'env_lib_python2_7_site-packages_werkzeug_utils'
p430
(dp431
g6
(dp432
g30
S'env_lib_python2_7_site-packages_werkzeug_utils.html'
p433
sg32
S'env/lib/python2.7/site-packages/werkzeug/utils'
p434
sg34
g13
(g14
g15
NtRp435
(dp436
g18
I1
sg19
I0
sg20
I242
sg21
I0
sg22
I0
sg23
I151
sg24
I0
sbssg25
S'\xf6WS\xd8\xdcN\x89\xb4\xd0k\xf5\xff\x1aQ\xa8{'
p437
ssS'env_lib_python2_7_site-packages_sqlalchemy_orm_unitofwork'
p438
(dp439
g6
(dp440
g8
S'env_lib_python2_7_site-packages_sqlalchemy_orm_unitofwork.html'
p441
sg10
S'env/lib/python2.7/site-packages/sqlalchemy/orm/unitofwork'
p442
sg12
g13
(g14
g15
NtRp443
(dp444
g18
I1
sg19
I0
sg20
I325
sg21
I0
sg22
I0
sg23
I155
sg24
I0
sbssg25
S'Bi\xe2\x19\xeb\t\xcc\xe1\x97I\x0b\x17\x9dX9\xc5'
p445
ssS'env_lib_python2_7_site-packages_sqlalchemy_orm_instrumentation'
p446
(dp447
g6
(dp448
g8
S'env_lib_python2_7_site-packages_sqlalchemy_orm_instrumentation.html'
p449
sg10
S'env/lib/python2.7/site-packages/sqlalchemy/orm/instrumentation'
p450
sg12
g13
(g14
g15
NtRp451
(dp452
g18
I1
sg19
I0
sg20
I239
sg21
I0
sg22
I0
sg23
I98
sg24
I0
sbssg25
S'\x11O\xd1\x80\xe8\xc8\x04\xb5\xe4I\x07\x891\xdcc\xd0'
p453
ssS'env_lib_python2_7_site-packages_sqlalchemy_engine_util'
p454
(dp455
g6
(dp456
g30
S'env_lib_python2_7_site-packages_sqlalchemy_engine_util.html'
p457
sg32
S'env/lib/python2.7/site-packages/sqlalchemy/engine/util'
p458
sg34
g13
(g14
g15
NtRp459
(dp460
g18
I1
sg19
I0
sg20
I33
sg21
I0
sg22
I0
sg23
I28
sg24
I0
sbssg25
S'\x16=\xe0\xb9}@H+\x97\x0f_\xd6\x00\x1c\xaey'
p461
ssS'env_lib_python2_7_site-packages_flask_wtf_i18n'
p462
(dp463
g6
(dp464
g30
S'env_lib_python2_7_site-packages_flask_wtf_i18n.html'
p465
sg32
S'env/lib/python2.7/site-packages/flask_wtf/i18n'
p466
sg34
g13
(g14
g15
NtRp467
(dp468
g18
I1
sg19
I0
sg20
I39
sg21
I0
sg22
I0
sg23
I36
sg24
I0
sbssg25
S"\xfd,\n/'\xd3eK\x1dg\xfb&w\xe9\x9b\xca"
p469
ssS'env_lib_python2_7_site-packages_sqlalchemy_orm_state'
p470
(dp471
g6
(dp472
g8
S'env_lib_python2_7_site-packages_sqlalchemy_orm_state.html'
p473
sg10
S'env/lib/python2.7/site-packages/sqlalchemy/orm/state'
p474
sg12
g13
(g14
g15
NtRp475
(dp476
g18
I1
sg19
I0
sg20
I255
sg21
I0
sg22
I0
sg23
I118
sg24
I0
sbssg25
S'\x8b~nng\xca\x92\xd6\xd7\xed\x96\x90\x9d\x9ft/'
p477
ssS'env_lib_python2_7_site-packages_sqlalchemy_util_queue'
p478
(dp479
g6
(dp480
g30
S'env_lib_python2_7_site-packages_sqlalchemy_util_queue.html'
p481
sg32
S'env/lib/python2.7/site-packages/sqlalchemy/util/queue'
p482
sg34
g13
(g14
g15
NtRp483
(dp484
g18
I1
sg19
I0
sg20
I88
sg21
I0
sg22
I0
sg23
I38
sg24
I0
sbssg25
S'\xb3QQ\x15\x14\xef\xef\x99J^\xf6\xd6\x12\x87\x81\x10'
p485
ssS'env_lib_python2_7_site-packages_flask_sessions'
p486
(dp487
g6
(dp488
g8
S'env_lib_python2_7_site-packages_flask_sessions.html'
p489
sg10
S'env/lib/python2.7/site-packages/flask/sessions'
p490
sg12
g13
(g14
g15
NtRp491
(dp492
g18
I1
sg19
I0
sg20
I143
sg21
I0
sg22
I0
sg23
I35
sg24
I0
sbssg25
S'f\xa2\xb1\x9c\x0e\xe4I\xac\xfef+\x82,\xdb@\xd6'
p493
ssS'env_lib_python2_7_site-packages_wtforms_fields_simple'
p494
(dp495
g6
(dp496
g30
S'env_lib_python2_7_site-packages_wtforms_fields_simple.html'
p497
sg32
S'env/lib/python2.7/site-packages/wtforms/fields/simple'
p498
sg34
g13
(g14
g15
NtRp499
(dp500
g18
I1
sg19
I0
sg20
I14
sg21
I0
sg22
I0
sg23
I0
sg24
I0
sbssg25
S'\x8c\x14\xe9\\\xf9\xa9$\x0f\x08\xba\xc7\xf4Y\xff;e'
p501
ssS'env_lib_python2_7_site-packages_sqlalchemy_orm_evaluator'
p502
(dp503
g6
(dp504
g30
S'env_lib_python2_7_site-packages_sqlalchemy_orm_evaluator.html'
p505
sg32
S'env/lib/python2.7/site-packages/sqlalchemy/orm/evaluator'
p506
sg34
g13
(g14
g15
NtRp507
(dp508
g18
I1
sg19
I0
sg20
I87
sg21
I0
sg22
I0
sg23
I68
sg24
I0
sbssg25
S'D-\x00s_\xa9{\x15\xdbp8Q:\xf3\xbb`'
p509
ssS'env_lib_python2_7_site-packages_flask_blueprints'
p510
(dp511
g6
(dp512
g30
S'env_lib_python2_7_site-packages_flask_blueprints.html'
p513
sg32
S'env/lib/python2.7/site-packages/flask/blueprints'
p514
sg34
g13
(g14
g15
NtRp515
(dp516
g18
I1
sg19
I0
sg20
I156
sg21
I0
sg22
I0
sg23
I118
sg24
I0
sbssg25
S'1D\xa1\x05E/\x93\xfd|\xb3q\xa6\x8a\xa6\xcc9'
p517
ssS'env_lib_python2_7_site-packages_wtforms_ext___init__'
p518
(dp519
g6
(dp520
g30
S'env_lib_python2_7_site-packages_wtforms_ext___init__.html'
p521
sg32
S'env/lib/python2.7/site-packages/wtforms/ext/__init__'
p522
sg34
g13
(g14
g15
NtRp523
(dp524
g18
I1
sg19
I0
sg20
I0
sg21
I0
sg22
I0
sg23
I0
sg24
I0
sbssg25
S'\xca\xf5\x9f\x7f\x88\xdfa\x831|T\x1d\xbc}\xa5v'
p525
ssS'env_lib_python2_7_site-packages_flask__compat'
p526
(dp527
g6
(dp528
g30
S'env_lib_python2_7_site-packages_flask__compat.html'
p529
sg32
S'env/lib/python2.7/site-packages/flask/_compat'
p530
sg34
g13
(g14
g15
NtRp531
(dp532
g18
I1
sg19
I0
sg20
I38
sg21
I0
sg22
I0
sg23
I20
sg24
I0
sbssg25
S's\xcd\x8a\xd4\xc2\xb9\x888\x0c\x97\xf4\x02\xc7\xcf\xf3\xeb'
p533
ssS'env_lib_python2_7_site-packages_flask_wtf_recaptcha_validators'
p534
(dp535
g6
(dp536
g30
S'env_lib_python2_7_site-packages_flask_wtf_recaptcha_validators.html'
p537
sg32
S'env/lib/python2.7/site-packages/flask_wtf/recaptcha/validators'
p538
sg34
g13
(g14
g15
NtRp539
(dp540
g18
I1
sg19
I0
sg20
I45
sg21
I0
sg22
I0
sg23
I32
sg24
I0
sbssg25
S'%[\xa4b\xa8\xeb}o\xf5M0\xd8\xd3\xea\xda\xf7'
p541
ssS'env_lib_python2_7_site-packages_markupsafe___init__'
p542
(dp543
g6
(dp544
g30
S'env_lib_python2_7_site-packages_markupsafe___init__.html'
p545
sg32
S'env/lib/python2.7/site-packages/markupsafe/__init__'
p546
sg34
g13
(g14
g15
NtRp547
(dp548
g18
I1
sg19
I0
sg20
I155
sg21
I0
sg22
I0
sg23
I85
sg24
I0
sbssg25
S'\xea:\x15\xe9\xe7H\x96\xef\xf0\x1aI\xc6\x93k\xf7\xa5'
p549
ssS'env_lib_python2_7_site-packages_sqlalchemy_sql___init__'
p550
(dp551
g6
(dp552
g30
S'env_lib_python2_7_site-packages_sqlalchemy_sql___init__.html'
p553
sg32
S'env/lib/python2.7/site-packages/sqlalchemy/sql/__init__'
p554
sg34
g13
(g14
g15
NtRp555
(dp556
g18
I1
sg19
I0
sg20
I15
sg21
I0
sg22
I0
sg23
I0
sg24
I0
sbssg25
S'\xbfDb\\sZv\xe2\x06\xb7g\x95<\xd8\x8e\xaf'
p557
ssS'env_lib_python2_7_site-packages_sqlalchemy_event_legacy'
p558
(dp559
g6
(dp560
g30
S'env_lib_python2_7_site-packages_sqlalchemy_event_legacy.html'
p561
sg32
S'env/lib/python2.7/site-packages/sqlalchemy/event/legacy'
p562
sg34
g13
(g14
g15
NtRp563
(dp564
g18
I1
sg19
I0
sg20
I56
sg21
I0
sg22
I0
sg23
I18
sg24
I0
sbssg25
S'2\rzG\xde\x9a\xf4ZR\xb0\x1fLJ\xec\xea\x93'
p565
ssS'env_lib_python2_7_site-packages_flask_ext___init__'
p566
(dp567
g6
(dp568
g30
S'env_lib_python2_7_site-packages_flask_ext___init__.html'
p569
sg32
S'env/lib/python2.7/site-packages/flask/ext/__init__'
p570
sg34
g13
(g14
g15
NtRp571
(dp572
g18
I1
sg19
I0
sg20
I7
sg21
I0
sg22
I0
sg23
I0
sg24
I0
sbssg25
S'\xc7\xd4\x92\x9b\xb0\xb4h\xf1Rs\xd6\xf8vw\xdd\x07'
p573
ssS'env_lib_python2_7_site-packages_sqlalchemy_exc'
p574
(dp575
g6
(dp576
g8
S'env_lib_python2_7_site-packages_sqlalchemy_exc.html'
p577
sg10
S'env/lib/python2.7/site-packages/sqlalchemy/exc'
p578
sg12
g13
(g14
g15
NtRp579
(dp580
g18
I1
sg19
I0
sg20
I104
sg21
I0
sg22
I0
sg23
I48
sg24
I0
sbssg25
S"CVe\x14~\x8bx\x0c\xad\xcf\xf3'\xa6\rE$"
p581
ssS'env_lib_python2_7_site-packages_sqlalchemy_sql_visitors'
p582
(dp583
g6
(dp584
g8
S'env_lib_python2_7_site-packages_sqlalchemy_sql_visitors.html'
p585
sg10
S'env/lib/python2.7/site-packages/sqlalchemy/sql/visitors'
p586
sg12
g13
(g14
g15
NtRp587
(dp588
g18
I1
sg19
I0
sg20
I132
sg21
I0
sg22
I0
sg23
I42
sg24
I0
sbssg25
S'\x8aG_2C\xdc\x11&\xe1Vm\xc4\xd6mPA'
p589
ssS'env_lib_python2_7_site-packages_jinja2_compiler'
p590
(dp591
g6
(dp592
g8
S'env_lib_python2_7_site-packages_jinja2_compiler.html'
p593
sg10
S'env/lib/python2.7/site-packages/jinja2/compiler'
p594
sg12
g13
(g14
g15
NtRp595
(dp596
g18
I1
sg19
I0
sg20
I1030
sg21
I0
sg22
I0
sg23
I523
sg24
I0
sbssg25
S'\xaeC\xa1G!\xccC\xb7\xa3\x1e\xdeO\xbc\xf0[}'
p597
ssS'env_lib_python2_7_site-packages_jinja2_exceptions'
p598
(dp599
g6
(dp600
g30
S'env_lib_python2_7_site-packages_jinja2_exceptions.html'
p601
sg32
S'env/lib/python2.7/site-packages/jinja2/exceptions'
p602
sg34
g13
(g14
g15
NtRp603
(dp604
g18
I1
sg19
I0
sg20
I70
sg21
I0
sg22
I0
sg23
I47
sg24
I0
sbssg25
S'\xf3z\xf9\xb0i}\xb8\xf8a\x05\xda\n?\x1c\xfb\x1d'
p605
ssS'env_lib_python2_7_site-packages_sqlalchemy_util_langhelpers'
p606
(dp607
g6
(dp608
g8
S'env_lib_python2_7_site-packages_sqlalchemy_util_langhelpers.html'
p609
sg10
S'env/lib/python2.7/site-packages/sqlalchemy/util/langhelpers'
p610
sg12
g13
(g14
g15
NtRp611
(dp612
g18
I1
sg19
I0
sg20
I629
sg21
I0
sg22
I0
sg23
I276
sg24
I0
sbssg25
S'o\n\xd7\x1b\x95p\x80\xad\xb3\xec\n\x80\xd6"\x82\x8c'
p613
ssS'env_lib_python2_7_site-packages_sqlalchemy_orm_scoping'
p614
(dp615
g6
(dp616
g8
S'env_lib_python2_7_site-packages_sqlalchemy_orm_scoping.html'
p617
sg10
S'env/lib/python2.7/site-packages/sqlalchemy/orm/scoping'
p618
sg12
g13
(g14
g15
NtRp619
(dp620
g18
I1
sg19
I0
sg20
I63
sg21
I0
sg22
I0
sg23
I26
sg24
I0
sbssg25
S'\xe6\x98E\xa6\x16,wc\xbcg!0\xa2\xe5\xd2T'
p621
ssS'env_lib_python2_7_site-packages_sqlalchemy_orm_query'
p622
(dp623
g6
(dp624
g8
S'env_lib_python2_7_site-packages_sqlalchemy_orm_query.html'
p625
sg10
S'env/lib/python2.7/site-packages/sqlalchemy/orm/query'
p626
sg12
g13
(g14
g15
NtRp627
(dp628
g18
I1
sg19
I0
sg20
I1090
sg21
I0
sg22
I0
sg23
I663
sg24
I0
sbssg25
S'\xb7LR\x955[\r\xbd\n\xc8\x85\xe4\xad\xc8\xfct'
p629
ssS'env_lib_python2_7_site-packages_werkzeug_formparser'
p630
(dp631
g6
(dp632
g30
S'env_lib_python2_7_site-packages_werkzeug_formparser.html'
p633
sg32
S'env/lib/python2.7/site-packages/werkzeug/formparser'
p634
sg34
g13
(g14
g15
NtRp635
(dp636
g18
I1
sg19
I0
sg20
I246
sg21
I4
sg22
I0
sg23
I173
sg24
I0
sbssg25
S'mR{\x9c\xd3\x12\xce_\x1a\x152rIz\xd7\xae'
p637
ssS'env_lib_python2_7_site-packages_itsdangerous'
p638
(dp639
g6
(dp640
g30
S'env_lib_python2_7_site-packages_itsdangerous.html'
p641
sg32
S'env/lib/python2.7/site-packages/itsdangerous'
p642
sg34
g13
(g14
g15
NtRp643
(dp644
g18
I1
sg19
I0
sg20
I413
sg21
I0
sg22
I0
sg23
I173
sg24
I0
sbssg25
S'\x99R\x14\xaf\x82M\xf2\xf9\xc9u\n]\xa6B\xfb\xa2'
p645
ssS'env_lib_python2_7_site-packages_sqlalchemy_orm_util'
p646
(dp647
g6
(dp648
g30
S'env_lib_python2_7_site-packages_sqlalchemy_orm_util.html'
p649
sg32
S'env/lib/python2.7/site-packages/sqlalchemy/orm/util'
p650
sg34
g13
(g14
g15
NtRp651
(dp652
g18
I1
sg19
I0
sg20
I281
sg21
I0
sg22
I0
sg23
I212
sg24
I0
sbssg25
S'(\xe4T\x88+\xae\xc9&F\xb6\xf6\xed(`\xea\xf0'
p653
ssS'env_lib_python2_7_site-packages_jinja2_tests'
p654
(dp655
g6
(dp656
g30
S'env_lib_python2_7_site-packages_jinja2_tests.html'
p657
sg32
S'env/lib/python2.7/site-packages/jinja2/tests'
p658
sg34
g13
(g14
g15
NtRp659
(dp660
g18
I1
sg19
I0
sg20
I47
sg21
I0
sg22
I0
sg23
I24
sg24
I0
sbssg25
S'\xb1[}x+R\x19\xd1\xe4\xc4\xf3\xcb"5\xe8\xfd'
p661
ssS'env_lib_python2_7_site-packages_jinja2___init__'
p662
(dp663
g6
(dp664
g30
S'env_lib_python2_7_site-packages_jinja2___init__.html'
p665
sg32
S'env/lib/python2.7/site-packages/jinja2/__init__'
p666
sg34
g13
(g14
g15
NtRp667
(dp668
g18
I1
sg19
I0
sg20
I11
sg21
I0
sg22
I0
sg23
I0
sg24
I0
sbssg25
S'\\\r\x9b(\x8d\x88\x89\xaaaX\xe8\xfc\x15~=!'
p669
ssS'env_lib_python2_7_site-packages_sqlalchemy_events'
p670
(dp671
g6
(dp672
g30
S'env_lib_python2_7_site-packages_sqlalchemy_events.html'
p673
sg32
S'env/lib/python2.7/site-packages/sqlalchemy/events'
p674
sg34
g13
(g14
g15
NtRp675
(dp676
g18
I1
sg19
I0
sg20
I95
sg21
I0
sg22
I0
sg23
I23
sg24
I0
sbssg25
S"\xf9\x14\x0b\r\\\xa4\x04'\xde)\xadk]\xd9(\x1e"
p677
ssS'env_lib_python2_7_site-packages_flask_wtf_recaptcha_fields'
p678
(dp679
g6
(dp680
g30
S'env_lib_python2_7_site-packages_flask_wtf_recaptcha_fields.html'
p681
sg32
S'env/lib/python2.7/site-packages/flask_wtf/recaptcha/fields'
p682
sg34
g13
(g14
g15
NtRp683
(dp684
g18
I1
sg19
I0
sg20
I10
sg21
I0
sg22
I0
sg23
I2
sg24
I0
sbssg25
S'b\xa9\xc8#Ez,\xaf\x89\x9c\x1b\x90f\xdd\x81>'
p685
ssS'env_lib_python2_7_site-packages_sqlalchemy_dialects_mysql_gaerdbms'
p686
(dp687
g6
(dp688
g30
S'env_lib_python2_7_site-packages_sqlalchemy_dialects_mysql_gaerdbms.html'
p689
sg32
S'env/lib/python2.7/site-packages/sqlalchemy/dialects/mysql/gaerdbms'
p690
sg34
g13
(g14
g15
NtRp691
(dp692
g18
I1
sg19
I0
sg20
I34
sg21
I0
sg22
I0
sg23
I21
sg24
I0
sbssg25
S'\xb8x\xd5\x91\th\x166\xbbH\x0f0K+=['
p693
ssS'env_lib_python2_7_site-packages_sqlalchemy_util_compat'
p694
(dp695
g6
(dp696
g8
S'env_lib_python2_7_site-packages_sqlalchemy_util_compat.html'
p697
sg10
S'env/lib/python2.7/site-packages/sqlalchemy/util/compat'
p698
sg12
g13
(g14
g15
NtRp699
(dp700
g18
I1
sg19
I0
sg20
I173
sg21
I0
sg22
I0
sg23
I98
sg24
I0
sbssg25
S'\x8f\x8aj\x86Y\x07\xd1\x88[\x93\xd3\xee+,3f'
p701
ssS'env_lib_python2_7_site-packages_MySQLdb_connections'
p702
(dp703
g6
(dp704
g8
S'env_lib_python2_7_site-packages_MySQLdb_connections.html'
p705
sg10
S'env/lib/python2.7/site-packages/MySQLdb/connections'
p706
sg12
g13
(g14
g15
NtRp707
(dp708
g18
I1
sg19
I0
sg20
I149
sg21
I0
sg22
I0
sg23
I37
sg24
I0
sbssg25
S'\xd5C\x10Y!6\xe8\x9d\xdcW\x81\x04\x95\r\x98\xeb'
p709
ssS'env_lib_python2_7_site-packages_flask_helpers'
p710
(dp711
g6
(dp712
g30
S'env_lib_python2_7_site-packages_flask_helpers.html'
p713
sg32
S'env/lib/python2.7/site-packages/flask/helpers'
p714
sg34
g13
(g14
g15
NtRp715
(dp716
g18
I1
sg19
I0
sg20
I277
sg21
I0
sg22
I0
sg23
I153
sg24
I0
sbssg25
S'\xd8\x19?r|v\xc7\xd8\x15\x9a-\xce_\xc5\xc7\x07'
p717
ssS'env_lib_python2_7_site-packages_flask_wrappers'
p718
(dp719
g6
(dp720
g30
S'env_lib_python2_7_site-packages_flask_wrappers.html'
p721
sg32
S'env/lib/python2.7/site-packages/flask/wrappers'
p722
sg34
g13
(g14
g15
NtRp723
(dp724
g18
I1
sg19
I0
sg20
I62
sg21
I0
sg22
I0
sg23
I32
sg24
I0
sbssg25
S'\x95\xe222\xaf\x83v\xb1\x13\x991\x96\xe2\xf4\x05\x17'
p725
ssS'env_lib_python2_7_site-packages_MySQLdb_constants_FLAG'
p726
(dp727
g6
(dp728
g30
S'env_lib_python2_7_site-packages_MySQLdb_constants_FLAG.html'
p729
sg32
S'env/lib/python2.7/site-packages/MySQLdb/constants/FLAG'
p730
sg34
g13
(g14
g15
NtRp731
(dp732
g18
I1
sg19
I0
sg20
I16
sg21
I0
sg22
I0
sg23
I0
sg24
I0
sbssg25
S'\xc7\x9b>\xf7\t\x9d\xcf\xb5\x02\xf1\x9b\xd3{\xb0-\xff'
p733
ssS'env_lib_python2_7_site-packages_flask_ctx'
p734
(dp735
g6
(dp736
g8
S'env_lib_python2_7_site-packages_flask_ctx.html'
p737
sg10
S'env/lib/python2.7/site-packages/flask/ctx'
p738
sg12
g13
(g14
g15
NtRp739
(dp740
g18
I1
sg19
I0
sg20
I140
sg21
I0
sg22
I0
sg23
I39
sg24
I0
sbssg25
S'a\xd2+\xee\x9a\xbc\xb15\xac\xfc\xba\x85\xb0j;<'
p741
ssS'env_lib_python2_7_site-packages_sqlalchemy_event_base'
p742
(dp743
g6
(dp744
g30
S'env_lib_python2_7_site-packages_sqlalchemy_event_base.html'
p745
sg32
S'env/lib/python2.7/site-packages/sqlalchemy/event/base'
p746
sg34
g13
(g14
g15
NtRp747
(dp748
g18
I1
sg19
I0
sg20
I88
sg21
I0
sg22
I0
sg23
I20
sg24
I0
sbssg25
S'\xc6\xa1\xfbR\x8a\xb3\x8c\xdd\xacC\x9dHh\x1c<\x15'
p749
ssS'env_lib_python2_7_site-packages_wtforms_widgets___init__'
p750
(dp751
g6
(dp752
g30
S'env_lib_python2_7_site-packages_wtforms_widgets___init__.html'
p753
sg32
S'env/lib/python2.7/site-packages/wtforms/widgets/__init__'
p754
sg34
g13
(g14
g15
NtRp755
(dp756
g18
I1
sg19
I0
sg20
I2
sg21
I0
sg22
I0
sg23
I0
sg24
I0
sbssg25
S'\xb7\xdd\xd5\x82\x17\xa4\xfeh?\xf5\xe8\xe5\xe6\x8blQ'
p757
ssS'env_lib_python2_7_site-packages_sqlalchemy_sql_default_comparator'
p758
(dp759
g6
(dp760
g8
S'env_lib_python2_7_site-packages_sqlalchemy_sql_default_comparator.html'
p761
sg10
S'env/lib/python2.7/site-packages/sqlalchemy/sql/default_comparator'
p762
sg12
g13
(g14
g15
NtRp763
(dp764
g18
I1
sg19
I0
sg20
I103
sg21
I0
sg22
I0
sg23
I63
sg24
I0
sbssg25
S'\x94Q1\x8d\xcaU\x89\x9b\xf3\x94\x87%/;\xf1G'
p765
ssS'env_lib_python2_7_site-packages_sqlalchemy_orm_identity'
p766
(dp767
g6
(dp768
g8
S'env_lib_python2_7_site-packages_sqlalchemy_orm_identity.html'
p769
sg10
S'env/lib/python2.7/site-packages/sqlalchemy/orm/identity'
p770
sg12
g13
(g14
g15
NtRp771
(dp772
g18
I1
sg19
I0
sg20
I164
sg21
I0
sg22
I0
sg23
I87
sg24
I0
sbssg25
S'\x0b\xec\xf9\xee\x17\xf6\x88\xbb\xc5\x1a\x9f\xeb\x81\x1b\xcd\xe7'
p773
ssS'app_models'
p774
(dp775
g6
(dp776
g8
S'app_models.html'
p777
sg10
S'app/models'
p778
sg12
g13
(g14
g15
NtRp779
(dp780
g18
I1
sg19
I0
sg20
I33
sg21
I0
sg22
I0
sg23
I2
sg24
I0
sbssg25
S'\x8a\xa8\t\xad\x0e=!\xfb\xf5P"+\xfd\xca:y'
p781
ssS'env_lib_python2_7_site-packages_sqlalchemy_sql_compiler'
p782
(dp783
g6
(dp784
g8
S'env_lib_python2_7_site-packages_sqlalchemy_sql_compiler.html'
p785
sg10
S'env/lib/python2.7/site-packages/sqlalchemy/sql/compiler'
p786
sg12
g13
(g14
g15
NtRp787
(dp788
g18
I1
sg19
I0
sg20
I1373
sg21
I0
sg22
I0
sg23
I842
sg24
I0
sbssg25
S'H\xaf\x8dV\x88P\x9e9\xaa3\x9f\xae\xd1\x1d|\n'
p789
ssS'env_lib_python2_7_site-packages_sqlalchemy_sql_schema'
p790
(dp791
g6
(dp792
g8
S'env_lib_python2_7_site-packages_sqlalchemy_sql_schema.html'
p793
sg10
S'env/lib/python2.7/site-packages/sqlalchemy/sql/schema'
p794
sg12
g13
(g14
g15
NtRp795
(dp796
g18
I1
sg19
I0
sg20
I1024
sg21
I0
sg22
I0
sg23
I519
sg24
I0
sbssg25
S'\xe78r}\x11oI\x9b\x03\xd5\xc2\xe6W\x17\xf8\xea'
p797
ssS'env_lib_python2_7_site-packages_sqlalchemy_ext_declarative___init__'
p798
(dp799
g6
(dp800
g30
S'env_lib_python2_7_site-packages_sqlalchemy_ext_declarative___init__.html'
p801
sg32
S'env/lib/python2.7/site-packages/sqlalchemy/ext/declarative/__init__'
p802
sg34
g13
(g14
g15
NtRp803
(dp804
g18
I1
sg19
I0
sg20
I2
sg21
I0
sg22
I0
sg23
I0
sg24
I0
sbssg25
S'L\x1dtT\x87a{\xfc\xb9\x89\n,C\x1f\x9b\xb6'
p805
ssS'env_lib_python2_7_site-packages_MySQLdb_cursors'
p806
(dp807
g6
(dp808
g8
S'env_lib_python2_7_site-packages_MySQLdb_cursors.html'
p809
sg10
S'env/lib/python2.7/site-packages/MySQLdb/cursors'
p810
sg12
g13
(g14
g15
NtRp811
(dp812
g18
I1
sg19
I0
sg20
I276
sg21
I0
sg22
I0
sg23
I125
sg24
I0
sbssg25
S';g\xee\x1a\xec\xfa\x82bi\xd4\x1fd\xa2ZZ\x10'
p813
ssS'env_lib_python2_7_site-packages_flask_sqlalchemy__compat'
p814
(dp815
g6
(dp816
g30
S'env_lib_python2_7_site-packages_flask_sqlalchemy__compat.html'
p817
sg32
S'env/lib/python2.7/site-packages/flask_sqlalchemy/_compat'
p818
sg34
g13
(g14
g15
NtRp819
(dp820
g18
I1
sg19
I0
sg20
I16
sg21
I0
sg22
I0
sg23
I6
sg24
I0
sbssg25
S'\xa5\xa8y\x10{\xe5\xfcm\x0f\xc6\xd4\x1a\xf0\x90Jh'
p821
ssS'env_lib_python2_7_site-packages_sqlalchemy_engine_reflection'
p822
(dp823
g6
(dp824
g30
S'env_lib_python2_7_site-packages_sqlalchemy_engine_reflection.html'
p825
sg32
S'env/lib/python2.7/site-packages/sqlalchemy/engine/reflection'
p826
sg34
g13
(g14
g15
NtRp827
(dp828
g18
I1
sg19
I0
sg20
I165
sg21
I0
sg22
I0
sg23
I137
sg24
I0
sbssg25
S'F\xde\xf8;7\xadQ0c\xc2\x83\x83\xc9\xe6\xc7\xda'
p829
ssS'env_lib_python2_7_site-packages_wtforms_ext_csrf___init__'
p830
(dp831
g6
(dp832
g30
S'env_lib_python2_7_site-packages_wtforms_ext_csrf___init__.html'
p833
sg32
S'env/lib/python2.7/site-packages/wtforms/ext/csrf/__init__'
p834
sg34
g13
(g14
g15
NtRp835
(dp836
g18
I1
sg19
I0
sg20
I1
sg21
I0
sg22
I0
sg23
I0
sg24
I0
sbssg25
S'\x00dH\xb0G\xd3\x88\xe75\x1e?\xd3W\x82\x93o'
p837
ssS'env_lib_python2_7_site-packages_werkzeug_http'
p838
(dp839
g6
(dp840
g8
S'env_lib_python2_7_site-packages_werkzeug_http.html'
p841
sg10
S'env/lib/python2.7/site-packages/werkzeug/http'
p842
sg12
g13
(g14
g15
NtRp843
(dp844
g18
I1
sg19
I0
sg20
I373
sg21
I4
sg22
I0
sg23
I269
sg24
I0
sbssg25
S'?\x02O\x8ew^c\x90}\x04~zT\xc8Rk'
p845
ssS'env_lib_python2_7_site-packages_flask_signals'
p846
(dp847
g6
(dp848
g30
S'env_lib_python2_7_site-packages_flask_signals.html'
p849
sg32
S'env/lib/python2.7/site-packages/flask/signals'
p850
sg34
g13
(g14
g15
NtRp851
(dp852
g18
I1
sg19
I0
sg20
I28
sg21
I0
sg22
I0
sg23
I2
sg24
I0
sbssg25
S'\x00\xe95\xfbqr\xe7\xe9k\xed\xaaT\xc5\xe1\xa5L'
p853
ssS'env_lib_python2_7_site-packages_MySQLdb_constants_FIELD_TYPE'
p854
(dp855
g6
(dp856
g30
S'env_lib_python2_7_site-packages_MySQLdb_constants_FIELD_TYPE.html'
p857
sg32
S'env/lib/python2.7/site-packages/MySQLdb/constants/FIELD_TYPE'
p858
sg34
g13
(g14
g15
NtRp859
(dp860
g18
I1
sg19
I0
sg20
I29
sg21
I0
sg22
I0
sg23
I0
sg24
I0
sbssg25
S'\xb6\xc0\xe9F$\x84\x0c\x07\xd7\xbe\xa8\xc9\xd2\xd2)\x13'
p861
ssS'env_lib_python2_7_site-packages_flask_wtf_recaptcha_widgets'
p862
(dp863
g6
(dp864
g30
S'env_lib_python2_7_site-packages_flask_wtf_recaptcha_widgets.html'
p865
sg32
S'env/lib/python2.7/site-packages/flask_wtf/recaptcha/widgets'
p866
sg34
g13
(g14
g15
NtRp867
(dp868
g18
I1
sg19
I0
sg20
I38
sg21
I0
sg22
I0
sg23
I22
sg24
I0
sbssg25
S'\xb0\x9d03\xb46&\xc5\x89\xd1d\x1bV\x18\x9cH'
p869
ssS'env_lib_python2_7_site-packages_sqlalchemy_dialects_mysql_oursql'
p870
(dp871
g6
(dp872
g30
S'env_lib_python2_7_site-packages_sqlalchemy_dialects_mysql_oursql.html'
p873
sg32
S'env/lib/python2.7/site-packages/sqlalchemy/dialects/mysql/oursql'
p874
sg34
g13
(g14
g15
NtRp875
(dp876
g18
I1
sg19
I0
sg20
I112
sg21
I0
sg22
I0
sg23
I69
sg24
I0
sbssg25
S'\x9c\x08\xa7/\xa6\xb49\x0c\x85\xe7\xe6\xadz\x1fX\xc7'
p877
ssS'env_lib_python2_7_site-packages_sqlalchemy_engine_strategies'
p878
(dp879
g6
(dp880
g30
S'env_lib_python2_7_site-packages_sqlalchemy_engine_strategies.html'
p881
sg32
S'env/lib/python2.7/site-packages/sqlalchemy/engine/strategies'
p882
sg34
g13
(g14
g15
NtRp883
(dp884
g18
I1
sg19
I0
sg20
I130
sg21
I0
sg22
I0
sg23
I44
sg24
I0
sbssg25
S'\x1a\\V \xa3\x9b\xde\xe8]G4x\xeb*\xcbo'
p885
ssS'env_lib_python2_7_site-packages_sqlalchemy_sql_ddl'
p886
(dp887
g6
(dp888
g8
S'env_lib_python2_7_site-packages_sqlalchemy_sql_ddl.html'
p889
sg10
S'env/lib/python2.7/site-packages/sqlalchemy/sql/ddl'
p890
sg12
g13
(g14
g15
NtRp891
(dp892
g18
I1
sg19
I0
sg20
I245
sg21
I0
sg22
I0
sg23
I146
sg24
I0
sbssg25
S'}\xd8\xce\xd2\xdfos\x8a\xc2\x8epQX\x8e\xdfc'
p893
ssS'env_lib_python2_7_site-packages_flask_exthook'
p894
(dp895
g6
(dp896
g30
S'env_lib_python2_7_site-packages_flask_exthook.html'
p897
sg32
S'env/lib/python2.7/site-packages/flask/exthook'
p898
sg34
g13
(g14
g15
NtRp899
(dp900
g18
I1
sg19
I0
sg20
I54
sg21
I0
sg22
I0
sg23
I24
sg24
I0
sbssg25
S'\x81\xa8\x93h\x123\rtT\xd2\xe8\x8ejs\x0f\x12'
p901
ssS'env_lib_python2_7_site-packages_werkzeug___init__'
p902
(dp903
g6
(dp904
g30
S'env_lib_python2_7_site-packages_werkzeug___init__.html'
p905
sg32
S'env/lib/python2.7/site-packages/werkzeug/__init__'
p906
sg34
g13
(g14
g15
NtRp907
(dp908
g18
I1
sg19
I0
sg20
I29
sg21
I0
sg22
I0
sg23
I4
sg24
I0
sbssg25
S'\xeb-_\xe8\xbbT\x0e\xd5\x8b\xdb\x87\xab\xd6m\xf6,'
p909
ssS'env_lib_python2_7_site-packages_flask_templating'
p910
(dp911
g6
(dp912
g30
S'env_lib_python2_7_site-packages_flask_templating.html'
p913
sg32
S'env/lib/python2.7/site-packages/flask/templating'
p914
sg34
g13
(g14
g15
NtRp915
(dp916
g18
I1
sg19
I0
sg20
I78
sg21
I0
sg22
I0
sg23
I34
sg24
I0
sbssg25
S'B\xd9X\x88\xedF\x9e\xea\xbbR\xdb\xb8\x8e\xd0\x89\x9b'
p917
ssS'env_lib_python2_7_site-packages_jinja2_lexer'
p918
(dp919
g6
(dp920
g30
S'env_lib_python2_7_site-packages_jinja2_lexer.html'
p921
sg32
S'env/lib/python2.7/site-packages/jinja2/lexer'
p922
sg34
g13
(g14
g15
NtRp923
(dp924
g18
I1
sg19
I0
sg20
I346
sg21
I0
sg22
I0
sg23
I80
sg24
I0
sbssg25
S'\x81\xe4\xbf\x163\x1c\xa6\xfb\xe60\xd9[\xdb\xa2\x13\n'
p925
ssS'env_lib_python2_7_site-packages_sqlalchemy_dialects_mysql_mysqlconnector'
p926
(dp927
g6
(dp928
g30
S'env_lib_python2_7_site-packages_sqlalchemy_dialects_mysql_mysqlconnector.html'
p929
sg32
S'env/lib/python2.7/site-packages/sqlalchemy/dialects/mysql/mysqlconnector'
p930
sg34
g13
(g14
g15
NtRp931
(dp932
g18
I1
sg19
I0
sg20
I87
sg21
I0
sg22
I0
sg23
I50
sg24
I0
sbssg25
S'p\x8d\xeb\x1c\xe7\xe2\xb9\xfao\x03\\\xc6.\x16\x8e\xb5'
p933
ssS'env_lib_python2_7_site-packages_MySQLdb_times'
p934
(dp935
g6
(dp936
g8
S'env_lib_python2_7_site-packages_MySQLdb_times.html'
p937
sg10
S'env/lib/python2.7/site-packages/MySQLdb/times'
p938
sg12
g13
(g14
g15
NtRp939
(dp940
g18
I1
sg19
I0
sg20
I87
sg21
I0
sg22
I0
sg23
I60
sg24
I0
sbssg25
S'N\xe2KP\xc3q\xd1\x8d\xfe\xf9A\xc7\nH\xd2w'
p941
ssS'env_lib_python2_7_site-packages_sqlalchemy_pool'
p942
(dp943
g6
(dp944
g8
S'env_lib_python2_7_site-packages_sqlalchemy_pool.html'
p945
sg10
S'env/lib/python2.7/site-packages/sqlalchemy/pool'
p946
sg12
g13
(g14
g15
NtRp947
(dp948
g18
I1
sg19
I0
sg20
I507
sg21
I0
sg22
I0
sg23
I279
sg24
I0
sbssg25
S'\xee\xc8o\xbb\x902\x8d\xa7F\xe7\xfc2P(\x1ae'
p949
ssS'env_lib_python2_7_site-packages_MySQLdb___init__'
p950
(dp951
g6
(dp952
g30
S'env_lib_python2_7_site-packages_MySQLdb___init__.html'
p953
sg32
S'env/lib/python2.7/site-packages/MySQLdb/__init__'
p954
sg34
g13
(g14
g15
NtRp955
(dp956
g18
I1
sg19
I0
sg20
I43
sg21
I0
sg22
I0
sg23
I11
sg24
I0
sbssg25
S'\xf6\xa2p#Rs\r8\xf0\x8f\x9a!\x8a\xbf9\x82'
p957
ssS'env_lib_python2_7_site-packages_sqlalchemy_engine_default'
p958
(dp959
g6
(dp960
g8
S'env_lib_python2_7_site-packages_sqlalchemy_engine_default.html'
p961
sg10
S'env/lib/python2.7/site-packages/sqlalchemy/engine/default'
p962
sg12
g13
(g14
g15
NtRp963
(dp964
g18
I1
sg19
I0
sg20
I483
sg21
I0
sg22
I0
sg23
I213
sg24
I0
sbssg25
S'1\x94\xa4\xc3%\xd5\xd4|I\xc1X\xa5\xcdT\xb3\xf3'
p965
ssS'env_lib_python2_7_site-packages_sqlalchemy_sql_base'
p966
(dp967
g6
(dp968
g30
S'env_lib_python2_7_site-packages_sqlalchemy_sql_base.html'
p969
sg32
S'env/lib/python2.7/site-packages/sqlalchemy/sql/base'
p970
sg34
g13
(g14
g15
NtRp971
(dp972
g18
I1
sg19
I0
sg20
I271
sg21
I0
sg22
I0
sg23
I153
sg24
I0
sbssg25
S'E\xc32\x1du\x99W\x89m\xf0\x0c\xa6#\xbeh\x99'
p973
ssS'env_lib_python2_7_site-packages_sqlalchemy_sql_util'
p974
(dp975
g6
(dp976
g30
S'env_lib_python2_7_site-packages_sqlalchemy_sql_util.html'
p977
sg32
S'env/lib/python2.7/site-packages/sqlalchemy/sql/util'
p978
sg34
g13
(g14
g15
NtRp979
(dp980
g18
I1
sg19
I0
sg20
I287
sg21
I0
sg22
I0
sg23
I197
sg24
I0
sbssg25
S'v\x01Ma\xf3\x03\xbc\x97\x99\r"\xda|}!s'
p981
ssS'app_forms'
p982
(dp983
g6
(dp984
g30
S'app_forms.html'
p985
sg32
S'app/forms'
p986
sg34
g13
(g14
g15
NtRp987
(dp988
g18
I1
sg19
I0
sg20
I17
sg21
I0
sg22
I0
sg23
I0
sg24
I0
sbssg25
S'\xad\x9e\xed\x98\x8f\xa2I\xae<\xd5\xa5u\xca+\xaa\x97'
p989
ssS'env_lib_python2_7_site-packages_jinja2_optimizer'
p990
(dp991
g6
(dp992
g30
S'env_lib_python2_7_site-packages_jinja2_optimizer.html'
p993
sg32
S'env/lib/python2.7/site-packages/jinja2/optimizer'
p994
sg34
g13
(g14
g15
NtRp995
(dp996
g18
I1
sg19
I0
sg20
I31
sg21
I0
sg22
I0
sg23
I8
sg24
I0
sbssg25
S"v\x90\x17@`\xb3wT\x0e\xa4X'\xf4g\x94."
p997
ssS'env_lib_python2_7_site-packages_sqlalchemy_types'
p998
(dp999
g6
(dp1000
g30
S'env_lib_python2_7_site-packages_sqlalchemy_types.html'
p1001
sg32
S'env/lib/python2.7/site-packages/sqlalchemy/types'
p1002
sg34
g13
(g14
g15
NtRp1003
(dp1004
g18
I1
sg19
I0
sg20
I4
sg21
I0
sg22
I0
sg23
I0
sg24
I0
sbssg25
S'\x85\x92\xe3\x02\x0f\x9dI\xf0U\xb3\xb2\x83\xb0*\xd4\xc3'
p1005
ssS'env_lib_python2_7_site-packages_wtforms_form'
p1006
(dp1007
g6
(dp1008
g8
S'env_lib_python2_7_site-packages_wtforms_form.html'
p1009
sg10
S'env/lib/python2.7/site-packages/wtforms/form'
p1010
sg12
g13
(g14
g15
NtRp1011
(dp1012
g18
I1
sg19
I0
sg20
I122
sg21
I0
sg22
I0
sg23
I42
sg24
I0
sbssg25
S'\xcda\xf3 \x04\xfbz\xa4+\xbb\xe0]\x86\x86\xcb\x9f'
p1013
ssS'env_lib_python2_7_site-packages_flask_module'
p1014
(dp1015
g6
(dp1016
g30
S'env_lib_python2_7_site-packages_flask_module.html'
p1017
sg32
S'env/lib/python2.7/site-packages/flask/module'
p1018
sg34
g13
(g14
g15
NtRp1019
(dp1020
g18
I1
sg19
I0
sg20
I13
sg21
I0
sg22
I0
sg23
I7
sg24
I0
sbssg25
S'\xf0\xdb\x0fZ4%l\x89\x9c]\xb9\xf7v\xe7@;'
p1021
ssS'env_lib_python2_7_site-packages_jinja2_filters'
p1022
(dp1023
g6
(dp1024
g30
S'env_lib_python2_7_site-packages_jinja2_filters.html'
p1025
sg32
S'env/lib/python2.7/site-packages/jinja2/filters'
p1026
sg34
g13
(g14
g15
NtRp1027
(dp1028
g18
I1
sg19
I0
sg20
I343
sg21
I0
sg22
I0
sg23
I265
sg24
I0
sbssg25
S'\xef#\xc6\xad\x92\x96v^M\x9d\xf0\xfeR\xcal\xc5'
p1029
ssS'env_lib_python2_7_site-packages_sqlalchemy_sql_type_api'
p1030
(dp1031
g6
(dp1032
g8
S'env_lib_python2_7_site-packages_sqlalchemy_sql_type_api.html'
p1033
sg10
S'env/lib/python2.7/site-packages/sqlalchemy/sql/type_api'
p1034
sg12
g13
(g14
g15
NtRp1035
(dp1036
g18
I1
sg19
I0
sg20
I262
sg21
I0
sg22
I0
sg23
I123
sg24
I0
sbssg25
S'\xdd\x1d\xc6\x9c\x19\x08<=\x9d-"\xfb\x1a\xf7\x00j'
p1037
ssS'env_lib_python2_7_site-packages_werkzeug_datastructures'
p1038
(dp1039
g6
(dp1040
g30
S'env_lib_python2_7_site-packages_werkzeug_datastructures.html'
p1041
sg32
S'env/lib/python2.7/site-packages/werkzeug/datastructures'
p1042
sg34
g13
(g14
g15
NtRp1043
(dp1044
g18
I1
sg19
I0
sg20
I1284
sg21
I0
sg22
I0
sg23
I765
sg24
I0
sbssg25
S'\xeb\xdb\xb2W\x80\xe1{\x84\x90\xfcU!R#l0'
p1045
ssS'env_lib_python2_7_site-packages_sqlalchemy_dialects_mysql_pyodbc'
p1046
(dp1047
g6
(dp1048
g30
S'env_lib_python2_7_site-packages_sqlalchemy_dialects_mysql_pyodbc.html'
p1049
sg32
S'env/lib/python2.7/site-packages/sqlalchemy/dialects/mysql/pyodbc'
p1050
sg34
g13
(g14
g15
NtRp1051
(dp1052
g18
I1
sg19
I0
sg20
I34
sg21
I0
sg22
I0
sg23
I19
sg24
I0
sbssg25
S'GB\x1bN<\x88\xab\x05E\xd6\xa7b\xb7\xcf\x00\xd7'
p1053
ssS'env_lib_python2_7_site-packages_sqlalchemy_dialects_mysql_base'
p1054
(dp1055
g6
(dp1056
g8
S'env_lib_python2_7_site-packages_sqlalchemy_dialects_mysql_base.html'
p1057
sg10
S'env/lib/python2.7/site-packages/sqlalchemy/dialects/mysql/base'
p1058
sg12
g13
(g14
g15
NtRp1059
(dp1060
g18
I1
sg19
I0
sg20
I1128
sg21
I0
sg22
I0
sg23
I722
sg24
I0
sbssg25
S'\xdf\xda\x1a\x96\xd8f\x18\x10wd\xb9\xce\xafV\x16*'
p1061
ssS'env_lib_python2_7_site-packages_sqlalchemy_ext_declarative_base'
p1062
(dp1063
g6
(dp1064
g30
S'env_lib_python2_7_site-packages_sqlalchemy_ext_declarative_base.html'
p1065
sg32
S'env/lib/python2.7/site-packages/sqlalchemy/ext/declarative/base'
p1066
sg34
g13
(g14
g15
NtRp1067
(dp1068
g18
I1
sg19
I0
sg20
I278
sg21
I0
sg22
I0
sg23
I129
sg24
I0
sbssg25
S'{[\x0f\x92~\xc5\xe1U\xf3\xa9O\xda\x80\x94\xb4}'
p1069
ssS'env_lib_python2_7_site-packages_sqlalchemy_orm_strategies'
p1070
(dp1071
g6
(dp1072
g8
S'env_lib_python2_7_site-packages_sqlalchemy_orm_strategies.html'
p1073
sg10
S'env/lib/python2.7/site-packages/sqlalchemy/orm/strategies'
p1074
sg12
g13
(g14
g15
NtRp1075
(dp1076
g18
I1
sg19
I0
sg20
I629
sg21
I0
sg22
I0
sg23
I443
sg24
I0
sbssg25
S'\xf6\xb1\x08eFb>o\x01\x0bI\rt\x0eG\xa3'
p1077
ssS'env_lib_python2_7_site-packages_sqlalchemy_util_topological'
p1078
(dp1079
g6
(dp1080
g30
S'env_lib_python2_7_site-packages_sqlalchemy_util_topological.html'
p1081
sg32
S'env/lib/python2.7/site-packages/sqlalchemy/util/topological'
p1082
sg34
g13
(g14
g15
NtRp1083
(dp1084
g18
I1
sg19
I0
sg20
I46
sg21
I0
sg22
I0
sg23
I8
sg24
I0
sbssg25
S'}\n+~\xa6\x98\xb6\xab\xb3]\xac\xc7\xcco\xc3\x8d'
p1085
ssS'app_test2'
p1086
(dp1087
g6
(dp1088
g30
S'app_test2.html'
p1089
sg32
S'app/test2'
p1090
sg34
g13
(g14
g15
NtRp1091
(dp1092
g18
I1
sg19
I0
sg20
I106
sg21
I0
sg22
I0
sg23
I29
sg24
I0
sbssg25
S'\x19pl\xba!3\xcf\xd3\xec\xf4\x01\xf2\x95I\x8e\x01'
p1093
ssS'env_lib_python2_7_site-packages_sqlalchemy_ext_declarative_clsregistry'
p1094
(dp1095
g6
(dp1096
g30
S'env_lib_python2_7_site-packages_sqlalchemy_ext_declarative_clsregistry.html'
p1097
sg32
S'env/lib/python2.7/site-packages/sqlalchemy/ext/declarative/clsregistry'
p1098
sg34
g13
(g14
g15
NtRp1099
(dp1100
g18
I1
sg19
I0
sg20
I179
sg21
I0
sg22
I0
sg23
I76
sg24
I0
sbssg25
S'v\xae\xb7\xb7\x0f\x08\xe4\xceo\no\x11\x03\xda\x99@'
p1101
ssS'env_lib_python2_7_site-packages_jinja2_parser'
p1102
(dp1103
g6
(dp1104
g30
S'env_lib_python2_7_site-packages_jinja2_parser.html'
p1105
sg32
S'env/lib/python2.7/site-packages/jinja2/parser'
p1106
sg34
g13
(g14
g15
NtRp1107
(dp1108
g18
I1
sg19
I0
sg20
I646
sg21
I0
sg22
I0
sg23
I331
sg24
I0
sbssg25
S'\xae]|\x99\xcd\x88\x93\x01 o\x03B\xf2\x8a\x17U'
p1109
ssS'env_lib_python2_7_site-packages_sqlalchemy_connectors_pyodbc'
p1110
(dp1111
g6
(dp1112
g30
S'env_lib_python2_7_site-packages_sqlalchemy_connectors_pyodbc.html'
p1113
sg32
S'env/lib/python2.7/site-packages/sqlalchemy/connectors/pyodbc'
p1114
sg34
g13
(g14
g15
NtRp1115
(dp1116
g18
I1
sg19
I0
sg20
I91
sg21
I0
sg22
I0
sg23
I67
sg24
I0
sbssg25
S'@\xcc\xf6j\xc0\x80h\x0fA<\x0b\x04\x83#\xf8\xe8'
p1117
ssS'env_lib_python2_7_site-packages_sqlalchemy_orm_path_registry'
p1118
(dp1119
g6
(dp1120
g8
S'env_lib_python2_7_site-packages_sqlalchemy_orm_path_registry.html'
p1121
sg10
S'env/lib/python2.7/site-packages/sqlalchemy/orm/path_registry'
p1122
sg12
g13
(g14
g15
NtRp1123
(dp1124
g18
I1
sg19
I0
sg20
I139
sg21
I0
sg22
I0
sg23
I50
sg24
I0
sbssg25
S'\xbe\xa3r\xb0\xe8\xc48\xdd\xa2Lt\x93o\xa9\x87\xce'
p1125
ssS'env_lib_python2_7_site-packages_sqlalchemy_dialects_mysql_pymysql'
p1126
(dp1127
g6
(dp1128
g30
S'env_lib_python2_7_site-packages_sqlalchemy_dialects_mysql_pymysql.html'
p1129
sg32
S'env/lib/python2.7/site-packages/sqlalchemy/dialects/mysql/pymysql'
p1130
sg34
g13
(g14
g15
NtRp1131
(dp1132
g18
I1
sg19
I0
sg20
I16
sg21
I0
sg22
I0
sg23
I6
sg24
I0
sbssg25
S'\xb2m\xeaD\xce\x88\xfc\xd5i#\xf6\xd4(\xaf\x12<'
p1133
ssS'env_lib_python2_7_site-packages_flask_globals'
p1134
(dp1135
g6
(dp1136
g30
S'env_lib_python2_7_site-packages_flask_globals.html'
p1137
sg32
S'env/lib/python2.7/site-packages/flask/globals'
p1138
sg34
g13
(g14
g15
NtRp1139
(dp1140
g18
I1
sg19
I0
sg20
I24
sg21
I0
sg22
I0
sg23
I6
sg24
I0
sbssg25
S'\x91\x03\x82\xe3\xc1,$\x9d\xd3{\x81\xf4v]\xbe\x08'
p1141
ssS'env_lib_python2_7_site-packages_sqlalchemy_orm_descriptor_props'
p1142
(dp1143
g6
(dp1144
g30
S'env_lib_python2_7_site-packages_sqlalchemy_orm_descriptor_props.html'
p1145
sg32
S'env/lib/python2.7/site-packages/sqlalchemy/orm/descriptor_props'
p1146
sg34
g13
(g14
g15
NtRp1147
(dp1148
g18
I1
sg19
I0
sg20
I242
sg21
I0
sg22
I0
sg23
I191
sg24
I0
sbssg25
S'\xc1(]\xeb\xbb\xdb\xaa8u\x1eF\xcd\t\x95M\xb5'
p1149
ssS'env_lib_python2_7_site-packages_werkzeug__internal'
p1150
(dp1151
g6
(dp1152
g30
S'env_lib_python2_7_site-packages_werkzeug__internal.html'
p1153
sg32
S'env/lib/python2.7/site-packages/werkzeug/_internal'
p1154
sg34
g13
(g14
g15
NtRp1155
(dp1156
g18
I1
sg19
I0
sg20
I235
sg21
I0
sg22
I0
sg23
I137
sg24
I0
sbssg25
S'\xe2\xe2\xa6\x14\x19\xe0\xae2b\x17\x9flm\xa0\xe1Q'
p1157
ssS'env_lib_python2_7_site-packages_MySQLdb_release'
p1158
(dp1159
g6
(dp1160
g30
S'env_lib_python2_7_site-packages_MySQLdb_release.html'
p1161
sg32
S'env/lib/python2.7/site-packages/MySQLdb/release'
p1162
sg34
g13
(g14
g15
NtRp1163
(dp1164
g18
I1
sg19
I0
sg20
I3
sg21
I0
sg22
I0
sg23
I0
sg24
I0
sbssg25
S'\\\\\x8a\x02\x8fIx\x8c\x0b%[\x81\xf7\xe1\xc7\xc7'
p1165
ssS'env_lib_python2_7_site-packages_wtforms_ext_csrf_fields'
p1166
(dp1167
g6
(dp1168
g30
S'env_lib_python2_7_site-packages_wtforms_ext_csrf_fields.html'
p1169
sg32
S'env/lib/python2.7/site-packages/wtforms/ext/csrf/fields'
p1170
sg34
g13
(g14
g15
NtRp1171
(dp1172
g18
I1
sg19
I0
sg20
I7
sg21
I0
sg22
I0
sg23
I1
sg24
I0
sbssg25
S'a\xbeb\xa19%\x0enZZ\xc0\x81\t\x92?\xe7'
p1173
ssS'env_lib_python2_7_site-packages_werkzeug_local'
p1174
(dp1175
g6
(dp1176
g30
S'env_lib_python2_7_site-packages_werkzeug_local.html'
p1177
sg32
S'env/lib/python2.7/site-packages/werkzeug/local'
p1178
sg34
g13
(g14
g15
NtRp1179
(dp1180
g18
I1
sg19
I0
sg20
I210
sg21
I0
sg22
I0
sg23
I64
sg24
I0
sbssg25
S'\xc0U\x91\x84\x02\xba=\x0b(\xc1(\xd8\x8f\xde\x93M'
p1181
ssS'env_lib_python2_7_site-packages_wtforms_widgets_core'
p1182
(dp1183
g6
(dp1184
g8
S'env_lib_python2_7_site-packages_wtforms_widgets_core.html'
p1185
sg10
S'env/lib/python2.7/site-packages/wtforms/widgets/core'
p1186
sg12
g13
(g14
g15
NtRp1187
(dp1188
g18
I1
sg19
I0
sg20
I117
sg21
I0
sg22
I0
sg23
I44
sg24
I0
sbssg25
S'\xb4\xcfP\xc9\xe7\xd7u?\x86\xda\xb9\xecIr\x88\xe1'
p1189
ssS'env_lib_python2_7_site-packages_jinja2_loaders'
p1190
(dp1191
g6
(dp1192
g30
S'env_lib_python2_7_site-packages_jinja2_loaders.html'
p1193
sg32
S'env/lib/python2.7/site-packages/jinja2/loaders'
p1194
sg34
g13
(g14
g15
NtRp1195
(dp1196
g18
I1
sg19
I0
sg20
I221
sg21
I0
sg22
I0
sg23
I136
sg24
I0
sbssg25
S'\x83&\xd8\xa0D\xd5\xfe\xbf\xb7@\xe28D\xf6\xc7]'
p1197
ssS'env_lib_python2_7_site-packages_sqlalchemy_sql_functions'
p1198
(dp1199
g6
(dp1200
g30
S'env_lib_python2_7_site-packages_sqlalchemy_sql_functions.html'
p1201
sg32
S'env/lib/python2.7/site-packages/sqlalchemy/sql/functions'
p1202
sg34
g13
(g14
g15
NtRp1203
(dp1204
g18
I1
sg19
I0
sg20
I170
sg21
I0
sg22
I0
sg23
I69
sg24
I0
sbssg25
S'j\\^SdE\x93i\xb5\xf4\x9ai\x95<q\xcc'
p1205
ssS'env_lib_python2_7_site-packages__mysql_exceptions'
p1206
(dp1207
g6
(dp1208
g30
S'env_lib_python2_7_site-packages__mysql_exceptions.html'
p1209
sg32
S'env/lib/python2.7/site-packages/_mysql_exceptions'
p1210
sg34
g13
(g14
g15
NtRp1211
(dp1212
g18
I1
sg19
I0
sg20
I15
sg21
I0
sg22
I0
sg23
I2
sg24
I0
sbssg25
S'\xec\xe1\xcf\xe8\xd6\xe3\x01# \xf9Sjv5?\x12'
p1213
ssS'env_lib_python2_7_site-packages_sqlalchemy_dialects_mysql_zxjdbc'
p1214
(dp1215
g6
(dp1216
g30
S'env_lib_python2_7_site-packages_sqlalchemy_dialects_mysql_zxjdbc.html'
p1217
sg32
S'env/lib/python2.7/site-packages/sqlalchemy/dialects/mysql/zxjdbc'
p1218
sg34
g13
(g14
g15
NtRp1219
(dp1220
g18
I1
sg19
I0
sg20
I56
sg21
I0
sg22
I0
sg23
I37
sg24
I0
sbssg25
S'\xb7\xab\xa1\x0br<;e\xd9\xf8\x7f\xc3\xa2\xc4XO'
p1221
ssS'env_lib_python2_7_site-packages_flask_config'
p1222
(dp1223
g6
(dp1224
g30
S'env_lib_python2_7_site-packages_flask_config.html'
p1225
sg32
S'env/lib/python2.7/site-packages/flask/config'
p1226
sg34
g13
(g14
g15
NtRp1227
(dp1228
g18
I1
sg19
I0
sg20
I52
sg21
I0
sg22
I0
sg23
I21
sg24
I0
sbssg25
S'\xcc\x9bxG\xcdU\x94at\x14\x86\xa3\x82\xcd&\x1b'
p1229
ssS'env_lib_python2_7_site-packages_flask_wtf_recaptcha___init__'
p1230
(dp1231
g6
(dp1232
g30
S'env_lib_python2_7_site-packages_flask_wtf_recaptcha___init__.html'
p1233
sg32
S'env/lib/python2.7/site-packages/flask_wtf/recaptcha/__init__'
p1234
sg34
g13
(g14
g15
NtRp1235
(dp1236
g18
I1
sg19
I0
sg20
I3
sg21
I0
sg22
I0
sg23
I0
sg24
I0
sbssg25
S'4\x19\xb3FA\xfcS%\x10\xd6\x1b\xfa\x01\x97\xd2\xb2'
p1237
ssS'env_lib_python2_7_site-packages_sqlalchemy_interfaces'
p1238
(dp1239
g6
(dp1240
g30
S'env_lib_python2_7_site-packages_sqlalchemy_interfaces.html'
p1241
sg32
S'env/lib/python2.7/site-packages/sqlalchemy/interfaces'
p1242
sg34
g13
(g14
g15
NtRp1243
(dp1244
g18
I1
sg19
I0
sg20
I69
sg21
I0
sg22
I0
sg23
I47
sg24
I0
sbssg25
S'\x07-a\xa6\xd7\xaf,(W:Z\x8f\x90\xb3t\x03'
p1245
ssS'env_lib_python2_7_site-packages_sqlalchemy_engine_threadlocal'
p1246
(dp1247
g6
(dp1248
g30
S'env_lib_python2_7_site-packages_sqlalchemy_engine_threadlocal.html'
p1249
sg32
S'env/lib/python2.7/site-packages/sqlalchemy/engine/threadlocal'
p1250
sg34
g13
(g14
g15
NtRp1251
(dp1252
g18
I1
sg19
I0
sg20
I80
sg21
I0
sg22
I0
sg23
I55
sg24
I0
sbssg25
S'(\xce\x89\x9ekZ4\xde!|bJ\xcd\xa9\xc8\xbf'
p1253
ssS'env_lib_python2_7_site-packages_jinja2__compat'
p1254
(dp1255
g6
(dp1256
g30
S'env_lib_python2_7_site-packages_jinja2__compat.html'
p1257
sg32
S'env/lib/python2.7/site-packages/jinja2/_compat'
p1258
sg34
g13
(g14
g15
NtRp1259
(dp1260
g18
I1
sg19
I0
sg20
I98
sg21
I0
sg22
I0
sg23
I35
sg24
I0
sbssg25
S'@u\t\x99\xbd\xbah\xdc\xa2\x9a\x18b\x12T\x89\x93'
p1261
ssS'env_lib_python2_7_site-packages_sqlalchemy_orm_dependency'
p1262
(dp1263
g6
(dp1264
g8
S'env_lib_python2_7_site-packages_sqlalchemy_orm_dependency.html'
p1265
sg10
S'env/lib/python2.7/site-packages/sqlalchemy/orm/dependency'
p1266
sg12
g13
(g14
g15
NtRp1267
(dp1268
g18
I1
sg19
I0
sg20
I478
sg21
I0
sg22
I0
sg23
I371
sg24
I0
sbssg25
S'\xf8\xcd\x14\x9eV\x9f0O-c\x869\xdbX\x80\xc9'
p1269
ssS'env_lib_python2_7_site-packages_sqlalchemy_engine_url'
p1270
(dp1271
g6
(dp1272
g30
S'env_lib_python2_7_site-packages_sqlalchemy_engine_url.html'
p1273
sg32
S'env/lib/python2.7/site-packages/sqlalchemy/engine/url'
p1274
sg34
g13
(g14
g15
NtRp1275
(dp1276
g18
I1
sg19
I0
sg20
I110
sg21
I0
sg22
I0
sg23
I43
sg24
I0
sbssg25
S'F\xf9\x95\xdf\xdb\xc6 a\x0cO0aD\xcfc\x8e'
p1277
ssS'env_lib_python2_7_site-packages_sqlalchemy_ext_declarative_api'
p1278
(dp1279
g6
(dp1280
g30
S'env_lib_python2_7_site-packages_sqlalchemy_ext_declarative_api.html'
p1281
sg32
S'env/lib/python2.7/site-packages/sqlalchemy/ext/declarative/api'
p1282
sg34
g13
(g14
g15
NtRp1283
(dp1284
g18
I1
sg19
I0
sg20
I118
sg21
I0
sg22
I0
sg23
I70
sg24
I0
sbssg25
S'\x08<\x04V\x95W\x009e\xd2\xd9\x02\x16\xcal\xc7'
p1285
ssS'env_lib_python2_7_site-packages_flask_wtf_csrf'
p1286
(dp1287
g6
(dp1288
g30
S'env_lib_python2_7_site-packages_flask_wtf_csrf.html'
p1289
sg32
S'env/lib/python2.7/site-packages/flask_wtf/csrf'
p1290
sg34
g13
(g14
g15
NtRp1291
(dp1292
g18
I1
sg19
I0
sg20
I114
sg21
I0
sg22
I0
sg23
I95
sg24
I0
sbssg25
S'Z\xd5`\xd1\xc6Q\xf2Y\x97m\xc6\\\xd5\x0bq\x9a'
p1293
ssS'env_lib_python2_7_site-packages_wtforms_ext_csrf_form'
p1294
(dp1295
g6
(dp1296
g30
S'env_lib_python2_7_site-packages_wtforms_ext_csrf_form.html'
p1297
sg32
S'env/lib/python2.7/site-packages/wtforms/ext/csrf/form'
p1298
sg34
g13
(g14
g15
NtRp1299
(dp1300
g18
I1
sg19
I0
sg20
I18
sg21
I0
sg22
I0
sg23
I6
sg24
I0
sbssg25
S'\x97g\xdd\\_\xc8\xc1\xc2j\xca\xc74$\xcd2\xf4'
p1301
ssS'env_lib_python2_7_site-packages_sqlalchemy_orm_base'
p1302
(dp1303
g6
(dp1304
g8
S'env_lib_python2_7_site-packages_sqlalchemy_orm_base.html'
p1305
sg10
S'env/lib/python2.7/site-packages/sqlalchemy/orm/base'
p1306
sg12
g13
(g14
g15
NtRp1307
(dp1308
g18
I1
sg19
I0
sg20
I145
sg21
I0
sg22
I0
sg23
I41
sg24
I0
sbssg25
S'\xc9\xec;\xb8\x8fC\xcc\x8f\x14\xc6\xfdo\xf2L0\xcd'
p1309
ssS'env_lib_python2_7_site-packages_wtforms___init__'
p1310
(dp1311
g6
(dp1312
g30
S'env_lib_python2_7_site-packages_wtforms___init__.html'
p1313
sg32
S'env/lib/python2.7/site-packages/wtforms/__init__'
p1314
sg34
g13
(g14
g15
NtRp1315
(dp1316
g18
I1
sg19
I0
sg20
I5
sg21
I0
sg22
I0
sg23
I0
sg24
I0
sbssg25
S'\x96\xfa\xa5*\x1e<\xfb\xf9\x9a\xb8\xe2\xb8[\xcb\x13\x93'
p1317
ssS'env_lib_python2_7_site-packages_flask_wtf_form'
p1318
(dp1319
g6
(dp1320
g30
S'env_lib_python2_7_site-packages_flask_wtf_form.html'
p1321
sg32
S'env/lib/python2.7/site-packages/flask_wtf/form'
p1322
sg34
g13
(g14
g15
NtRp1323
(dp1324
g18
I1
sg19
I0
sg20
I77
sg21
I0
sg22
I0
sg23
I34
sg24
I0
sbssg25
S"\xde\xe9U'\xac\xc4\x03e\x95\xdc\xacG\xff\x1d\xae\x91"
p1325
ssS'env_lib_python2_7_site-packages_sqlalchemy_orm_persistence'
p1326
(dp1327
g6
(dp1328
g8
S'env_lib_python2_7_site-packages_sqlalchemy_orm_persistence.html'
p1329
sg10
S'env/lib/python2.7/site-packages/sqlalchemy/orm/persistence'
p1330
sg12
g13
(g14
g15
NtRp1331
(dp1332
g18
I1
sg19
I0
sg20
I464
sg21
I0
sg22
I0
sg23
I298
sg24
I0
sbssg25
S'\x9a\x98b\x1f\xa1\x84\xe1\x19\x02\x88[\xc2\xe2\xf7\x85\xed'
p1333
ssS'env_lib_python2_7_site-packages_wtforms_fields_core'
p1334
(dp1335
g6
(dp1336
g8
S'env_lib_python2_7_site-packages_wtforms_fields_core.html'
p1337
sg10
S'env/lib/python2.7/site-packages/wtforms/fields/core'
p1338
sg12
g13
(g14
g15
NtRp1339
(dp1340
g18
I1
sg19
I0
sg20
I484
sg21
I0
sg22
I0
sg23
I246
sg24
I0
sbssg25
S'\xb1dW&\xaf\x11\xder*\x85N\xb5\xb6\xa8\x7fe'
p1341
ssS'env_lib_python2_7_site-packages_sqlalchemy_orm_deprecated_interfaces'
p1342
(dp1343
g6
(dp1344
g30
S'env_lib_python2_7_site-packages_sqlalchemy_orm_deprecated_interfaces.html'
p1345
sg32
S'env/lib/python2.7/site-packages/sqlalchemy/orm/deprecated_interfaces'
p1346
sg34
g13
(g14
g15
NtRp1347
(dp1348
g18
I1
sg19
I0
sg20
I91
sg21
I0
sg22
I0
sg23
I50
sg24
I0
sbssg25
S'?\x88"\xa2N\x08G\xc5\x00\x1f\x96\xc1\x90\xc4\x06R'
p1349
ssS'env_lib_python2_7_site-packages_sqlalchemy_sql_selectable'
p1350
(dp1351
g6
(dp1352
g8
S'env_lib_python2_7_site-packages_sqlalchemy_sql_selectable.html'
p1353
sg10
S'env/lib/python2.7/site-packages/sqlalchemy/sql/selectable'
p1354
sg12
g13
(g14
g15
NtRp1355
(dp1356
g18
I1
sg19
I0
sg20
I886
sg21
I0
sg22
I0
sg23
I509
sg24
I0
sbssg25
S'\xd9\xf2\xc1G\xc6\xf16&Yolv\x91\x05\x8f!'
p1357
ssS'env_lib_python2_7_site-packages_sqlalchemy_connectors_zxJDBC'
p1358
(dp1359
g6
(dp1360
g30
S'env_lib_python2_7_site-packages_sqlalchemy_connectors_zxJDBC.html'
p1361
sg32
S'env/lib/python2.7/site-packages/sqlalchemy/connectors/zxJDBC'
p1362
sg34
g13
(g14
g15
NtRp1363
(dp1364
g18
I1
sg19
I0
sg20
I30
sg21
I0
sg22
I0
sg23
I12
sg24
I0
sbssg25
S'\xe5^\xe5y\xb8\xab\x04\x02E\xaaa\xac\xa0[Up'
p1365
ssS'env_lib_python2_7_site-packages_sqlalchemy_sql_expression'
p1366
(dp1367
g6
(dp1368
g30
S'env_lib_python2_7_site-packages_sqlalchemy_sql_expression.html'
p1369
sg32
S'env/lib/python2.7/site-packages/sqlalchemy/sql/expression'
p1370
sg34
g13
(g14
g15
NtRp1371
(dp1372
g18
I1
sg19
I0
sg20
I67
sg21
I0
sg22
I0
sg23
I0
sg24
I0
sbssg25
S'\x14\xe7\xc4\xe8@\xe5\t}\xba\xe6,E\xe3\x06\xe0\xad'
p1373
ssS'env_lib_python2_7_site-packages_jinja2_visitor'
p1374
(dp1375
g6
(dp1376
g30
S'env_lib_python2_7_site-packages_jinja2_visitor.html'
p1377
sg32
S'env/lib/python2.7/site-packages/jinja2/visitor'
p1378
sg34
g13
(g14
g15
NtRp1379
(dp1380
g18
I1
sg19
I0
sg20
I40
sg21
I0
sg22
I0
sg23
I8
sg24
I0
sbssg25
S'+&9m\xe7\x0f\xabq\x87\xaf;EL\x84#i'
p1381
ssS'env_lib_python2_7_site-packages_sqlalchemy_orm_interfaces'
p1382
(dp1383
g6
(dp1384
g8
S'env_lib_python2_7_site-packages_sqlalchemy_orm_interfaces.html'
p1385
sg10
S'env/lib/python2.7/site-packages/sqlalchemy/orm/interfaces'
p1386
sg12
g13
(g14
g15
NtRp1387
(dp1388
g18
I1
sg19
I0
sg20
I149
sg21
I0
sg22
I0
sg23
I33
sg24
I0
sbssg25
S'C\xf9\x85\xb0=\x85E\xec\x9d\x8f\xfei\xdb!\xbe|'
p1389
ssS'env_lib_python2_7_site-packages_MySQLdb_constants___init__'
p1390
(dp1391
g6
(dp1392
g30
S'env_lib_python2_7_site-packages_MySQLdb_constants___init__.html'
p1393
sg32
S'env/lib/python2.7/site-packages/MySQLdb/constants/__init__'
p1394
sg34
g13
(g14
g15
NtRp1395
(dp1396
g18
I1
sg19
I0
sg20
I1
sg21
I0
sg22
I0
sg23
I0
sg24
I0
sbssg25
S'\x8b\xba`z\x0c\x93?\xb8K`\xc8+2\x9e\x95d'
p1397
ssS'env_lib_python2_7_site-packages_sqlalchemy_util_deprecations'
p1398
(dp1399
g6
(dp1400
g30
S'env_lib_python2_7_site-packages_sqlalchemy_util_deprecations.html'
p1401
sg32
S'env/lib/python2.7/site-packages/sqlalchemy/util/deprecations'
p1402
sg34
g13
(g14
g15
NtRp1403
(dp1404
g18
I1
sg19
I0
sg20
I66
sg21
I0
sg22
I0
sg23
I7
sg24
I0
sbssg25
S'\x86\x01\xf5\x08\xaa\x00\xc9\x8cL&\x99\x84W\x1cx\x89'
p1405
ssS'env_lib_python2_7_site-packages_sqlalchemy_inspection'
p1406
(dp1407
g6
(dp1408
g8
S'env_lib_python2_7_site-packages_sqlalchemy_inspection.html'
p1409
sg10
S'env/lib/python2.7/site-packages/sqlalchemy/inspection'
p1410
sg12
g13
(g14
g15
NtRp1411
(dp1412
g18
I1
sg19
I0
sg20
I28
sg21
I0
sg22
I0
sg23
I2
sg24
I0
sbssg25
S'\x91\x8af\x16\xe9\x1e\xd6$x(`\xffSB*1'
p1413
ssS'env_lib_python2_7_site-packages_sqlalchemy_orm_relationships'
p1414
(dp1415
g6
(dp1416
g30
S'env_lib_python2_7_site-packages_sqlalchemy_orm_relationships.html'
p1417
sg32
S'env/lib/python2.7/site-packages/sqlalchemy/orm/relationships'
p1418
sg34
g13
(g14
g15
NtRp1419
(dp1420
g18
I1
sg19
I0
sg20
I785
sg21
I0
sg22
I0
sg23
I374
sg24
I0
sbssg25
S'T\x84z\xff\xdd\xce\xb9\xc6\xca\xf9 z\x98\x87\x97\xc6'
p1421
ssS'env_lib_python2_7_site-packages_wtforms_validators'
p1422
(dp1423
g6
(dp1424
g8
S'env_lib_python2_7_site-packages_wtforms_validators.html'
p1425
sg10
S'env/lib/python2.7/site-packages/wtforms/validators'
p1426
sg12
g13
(g14
g15
NtRp1427
(dp1428
g18
I1
sg19
I0
sg20
I225
sg21
I0
sg22
I0
sg23
I140
sg24
I0
sbssg25
S'\x16<\xa5\x05f?\xbc\xe3\xf1\x0c\xb2\xaf\x12B\x88S'
p1429
ssS'env_lib_python2_7_site-packages_sqlalchemy_orm_mapper'
p1430
(dp1431
g6
(dp1432
g8
S'env_lib_python2_7_site-packages_sqlalchemy_orm_mapper.html'
p1433
sg10
S'env/lib/python2.7/site-packages/sqlalchemy/orm/mapper'
p1434
sg12
g13
(g14
g15
NtRp1435
(dp1436
g18
I1
sg19
I0
sg20
I902
sg21
I0
sg22
I0
sg23
I432
sg24
I0
sbssg25
S'\xe4\xfd\x1c\xe5\x93\xca\xff\xa2g\x16\x02+\xb2\x15+a'
p1437
ssS'env_lib_python2_7_site-packages_sqlalchemy_event_attr'
p1438
(dp1439
g6
(dp1440
g30
S'env_lib_python2_7_site-packages_sqlalchemy_event_attr.html'
p1441
sg32
S'env/lib/python2.7/site-packages/sqlalchemy/event/attr'
p1442
sg34
g13
(g14
g15
NtRp1443
(dp1444
g18
I1
sg19
I0
sg20
I213
sg21
I0
sg22
I0
sg23
I67
sg24
I0
sbssg25
S'\x844\xb8\x04z\xe4u\x81\xb8l+g.\x13\x8c{'
p1445
ssS'env_lib_python2_7_site-packages_flask_wtf___init__'
p1446
(dp1447
g6
(dp1448
g30
S'env_lib_python2_7_site-packages_flask_wtf___init__.html'
p1449
sg32
S'env/lib/python2.7/site-packages/flask_wtf/__init__'
p1450
sg34
g13
(g14
g15
NtRp1451
(dp1452
g18
I1
sg19
I0
sg20
I6
sg21
I0
sg22
I0
sg23
I0
sg24
I0
sbssg25
S'\xd5\xec{9\x18O\xf7gi\x7f\xdc\x8cx#\x18\x82'
p1453
ssS'app_config'
p1454
(dp1455
g6
(dp1456
g30
S'app_config.html'
p1457
sg32
S'app/config'
p1458
sg34
g13
(g14
g15
NtRp1459
(dp1460
g18
I1
sg19
I0
sg20
I7
sg21
I0
sg22
I0
sg23
I0
sg24
I0
sbssg25
S'\xab%\xa1]\x14f\xc4\x81\xd1\xd8\x8f\xa4\xc0zD\xef'
p1461
ssS'env_lib_python2_7_site-packages_werkzeug__compat'
p1462
(dp1463
g6
(dp1464
g8
S'env_lib_python2_7_site-packages_werkzeug__compat.html'
p1465
sg10
S'env/lib/python2.7/site-packages/werkzeug/_compat'
p1466
sg12
g13
(g14
g15
NtRp1467
(dp1468
g18
I1
sg19
I0
sg20
I146
sg21
I0
sg22
I0
sg23
I70
sg24
I0
sbssg25
S'\x14g*\x81^\x04\xae\xec\x94\\\xba@_\x0eE\xcd'
p1469
ssS'env_lib_python2_7_site-packages_sqlalchemy_dialects_mysql_cymysql'
p1470
(dp1471
g6
(dp1472
g30
S'env_lib_python2_7_site-packages_sqlalchemy_dialects_mysql_cymysql.html'
p1473
sg32
S'env/lib/python2.7/site-packages/sqlalchemy/dialects/mysql/cymysql'
p1474
sg34
g13
(g14
g15
NtRp1475
(dp1476
g18
I1
sg19
I0
sg20
I45
sg21
I0
sg22
I0
sg23
I25
sg24
I0
sbssg25
S'\x8a\xad\x8cy*K\xbf\xaf\xb8e\x97\x19\xbf\xbe\xb9\xc6'
p1477
ssS'env_lib_python2_7_site-packages_sqlalchemy_log'
p1478
(dp1479
g6
(dp1480
g30
S'env_lib_python2_7_site-packages_sqlalchemy_log.html'
p1481
sg32
S'env/lib/python2.7/site-packages/sqlalchemy/log'
p1482
sg34
g13
(g14
g15
NtRp1483
(dp1484
g18
I1
sg19
I0
sg20
I79
sg21
I0
sg22
I0
sg23
I33
sg24
I0
sbssg25
S'a\xd0\xeb\xd8\xfb\xc3\xc3p\xe6#n\x1b\xa4\x87\x9f\xaa'
p1485
ssS'env_lib_python2_7_site-packages_flask_sqlalchemy___init__'
p1486
(dp1487
g6
(dp1488
g8
S'env_lib_python2_7_site-packages_flask_sqlalchemy___init__.html'
p1489
sg10
S'env/lib/python2.7/site-packages/flask_sqlalchemy/__init__'
p1490
sg12
g13
(g14
g15
NtRp1491
(dp1492
g18
I1
sg19
I0
sg20
I431
sg21
I0
sg22
I0
sg23
I124
sg24
I0
sbssg25
S'\xab\x1e\x8e\x85\xb1\xf6\xef\xb6D\xfd\x88\n\x8em\xa5\x90'
p1493
ssS'env_lib_python2_7_site-packages_sqlalchemy_orm_collections'
p1494
(dp1495
g6
(dp1496
g30
S'env_lib_python2_7_site-packages_sqlalchemy_orm_collections.html'
p1497
sg32
S'env/lib/python2.7/site-packages/sqlalchemy/orm/collections'
p1498
sg34
g13
(g14
g15
NtRp1499
(dp1500
g18
I1
sg19
I0
sg20
I691
sg21
I0
sg22
I0
sg23
I391
sg24
I0
sbssg25
S'B\xa7{\xf3\xdb\x14p\x8b\xca\xbf\xf9\xc6&\xe5\xabB'
p1501
ssS'app_test3'
p1502
(dp1503
S'index'
p1504
(dp1505
g8
S'app_test3.html'
p1506
sg10
S'app/test3'
p1507
sg12
g13
(g14
g15
NtRp1508
(dp1509
g18
I1
sg19
I0
sg20
I32
sg21
I0
sg22
I0
sg23
I2
sg24
I0
sbssS'hash'
p1510
S'\xce\x1ex\xee\x0e$\x1b\xbc\xc9O\xc1\x9e\xc4\xd2\x82\x01'
p1511
ssS'env_lib_python2_7_site-packages_sqlalchemy_sql_operators'
p1512
(dp1513
g6
(dp1514
g8
S'env_lib_python2_7_site-packages_sqlalchemy_sql_operators.html'
p1515
sg10
S'env/lib/python2.7/site-packages/sqlalchemy/sql/operators'
p1516
sg12
g13
(g14
g15
NtRp1517
(dp1518
g18
I1
sg19
I0
sg20
I199
sg21
I0
sg22
I0
sg23
I88
sg24
I0
sbssg25
S'-X\xfe8\x92h\x03i\x893\xfe\xcf\xb2\xea\x85\xea'
p1519
ssS'env_lib_python2_7_site-packages_jinja2_nodes'
p1520
(dp1521
g6
(dp1522
g30
S'env_lib_python2_7_site-packages_jinja2_nodes.html'
p1523
sg32
S'env/lib/python2.7/site-packages/jinja2/nodes'
p1524
sg34
g13
(g14
g15
NtRp1525
(dp1526
g18
I1
sg19
I0
sg20
I423
sg21
I0
sg22
I0
sg23
I153
sg24
I0
sbssg25
S'\xb6\xb6\xf0\x92\x15\xd0\xb2 \x0b"Y\x16\x8b\xef!\x99'
p1527
ssS'env_lib_python2_7_site-packages_jinja2_ext'
p1528
(dp1529
g6
(dp1530
g30
S'env_lib_python2_7_site-packages_jinja2_ext.html'
p1531
sg32
S'env/lib/python2.7/site-packages/jinja2/ext'
p1532
sg34
g13
(g14
g15
NtRp1533
(dp1534
g18
I1
sg19
I0
sg20
I305
sg21
I0
sg22
I0
sg23
I241
sg24
I0
sbssg25
S'\xf2\xe7\xbc,\x81\xdb\xc6\xee\x8f\xd3a\x1eGu\x19\x12'
p1535
ssS'env_lib_python2_7_site-packages_sqlalchemy_dialects_mysql_mysqldb'
p1536
(dp1537
g6
(dp1538
g30
S'env_lib_python2_7_site-packages_sqlalchemy_dialects_mysql_mysqldb.html'
p1539
sg32
S'env/lib/python2.7/site-packages/sqlalchemy/dialects/mysql/mysqldb'
p1540
sg34
g13
(g14
g15
NtRp1541
(dp1542
g18
I1
sg19
I0
sg20
I22
sg21
I0
sg22
I0
sg23
I1
sg24
I0
sbssg25
S'\xe8\x8f"\x8cW\x1d\xe9\t\x13\x1cp\xa3\xb8\xf9\xf3\x98'
p1543
ssS'env_lib_python2_7_site-packages_sqlalchemy___init__'
p1544
(dp1545
g6
(dp1546
g30
S'env_lib_python2_7_site-packages_sqlalchemy___init__.html'
p1547
sg32
S'env/lib/python2.7/site-packages/sqlalchemy/__init__'
p1548
sg34
g13
(g14
g15
NtRp1549
(dp1550
g18
I1
sg19
I0
sg20
I13
sg21
I0
sg22
I0
sg23
I0
sg24
I0
sbssg25
S'{\xb8\xe6\x7f\xdcC\x9c\xbb\xf1\x14O$\xeeG\x86\xea'
p1551
ssS'env_lib_python2_7_site-packages_jinja2_defaults'
p1552
(dp1553
g6
(dp1554
g30
S'env_lib_python2_7_site-packages_jinja2_defaults.html'
p1555
sg32
S'env/lib/python2.7/site-packages/jinja2/defaults'
p1556
sg34
g13
(g14
g15
NtRp1557
(dp1558
g18
I1
sg19
I0
sg20
I19
sg21
I0
sg22
I0
sg23
I0
sg24
I0
sbssg25
S'\xe2s1\x07\x11\xcc\xb8t@\xa5n<\x98\x97"j'
p1559
ssS'env_lib_python2_7_site-packages_sqlalchemy_sql_dml'
p1560
(dp1561
g6
(dp1562
g30
S'env_lib_python2_7_site-packages_sqlalchemy_sql_dml.html'
p1563
sg32
S'env/lib/python2.7/site-packages/sqlalchemy/sql/dml'
p1564
sg34
g13
(g14
g15
NtRp1565
(dp1566
g18
I1
sg19
I0
sg20
I153
sg21
I0
sg22
I0
sg23
I91
sg24
I0
sbssg25
S'\xa4$\xf6\xf2\xdf\x86\xb3\xb8=\xcfI\x18\xd2l\x88\x07'
p1567
ssS'env_lib_python2_7_site-packages_werkzeug_wsgi'
p1568
(dp1569
g6
(dp1570
g30
S'env_lib_python2_7_site-packages_werkzeug_wsgi.html'
p1571
sg32
S'env/lib/python2.7/site-packages/werkzeug/wsgi'
p1572
sg34
g13
(g14
g15
NtRp1573
(dp1574
g18
I1
sg19
I0
sg20
I448
sg21
I0
sg22
I0
sg23
I293
sg24
I0
sbssg25
S"*\x03\x8cb\xe0\x95\xfa\xe3?=\xd8\xd1L=O'"
p1575
sssS'version'
p1576
S'3.7.1'
p1577
sS'settings'
p1578
S'\x98\xa8x\xfe"r\xb5K\x98\xb1N\\\x99\x9e\xf3\xe5'
p1579
sS'format'
p1580
I1
s.